

Microchip Technology PIC18 LITE Macro Assembler V1.45 build -152302408 
                                                                                               Mon Apr 20 23:41:36 2026

Microchip Technology Omniscient Code Generator v1.45 (Free mode) build 201711160504
     1                           	processor	18F4620
     2                           	fnconf	rparam,??,?,0
     3                           	opt	pw 120
     4                           	opt	lm
     5                           	psect	idataCOMRAM,global,class=CODE,delta=1,noexec
     6                           	psect	idataBANK0,global,class=CODE,delta=1,noexec
     7                           	psect	smallconst,global,reloc=2,class=SMALLCONST,delta=1,noexec
     8                           	psect	cinit,global,reloc=2,class=CODE,delta=1
     9                           	psect	dataCOMRAM,global,class=COMRAM,space=1,delta=1,noexec
    10                           	psect	bssBANK0,global,class=BANK0,space=1,delta=1,lowdata,noexec
    11                           	psect	dataBANK0,global,class=BANK0,space=1,delta=1,lowdata,noexec
    12                           	psect	cstackBANK0,global,class=BANK0,space=1,delta=1,noexec
    13                           	psect	cstackCOMRAM,global,class=COMRAM,space=1,delta=1,noexec
    14                           	psect	text0,global,reloc=2,class=CODE,delta=1
    15                           	psect	text1,global,reloc=2,class=CODE,delta=1
    16                           	psect	text2,global,reloc=2,class=CODE,delta=1
    17                           	psect	text3,global,reloc=2,class=CODE,delta=1
    18                           	psect	text4,global,reloc=2,class=CODE,delta=1
    19                           	psect	text5,global,reloc=2,class=CODE,delta=1
    20                           	psect	text6,global,reloc=2,class=CODE,delta=1
    21                           	psect	text7,global,reloc=2,class=CODE,delta=1
    22                           	psect	text8,global,reloc=2,class=CODE,delta=1
    23                           	psect	text9,global,reloc=2,class=CODE,delta=1
    24                           	psect	text10,global,reloc=2,class=CODE,delta=1
    25                           	psect	text11,global,reloc=2,class=CODE,delta=1
    26                           	psect	text12,global,reloc=2,class=CODE,delta=1
    27                           	psect	text13,global,reloc=2,class=CODE,delta=1,group=1
    28                           	psect	text14,global,reloc=2,class=CODE,delta=1,group=1
    29                           	psect	text15,global,reloc=2,class=CODE,delta=1,group=1
    30                           	psect	text16,global,reloc=2,class=CODE,delta=1
    31                           	psect	text17,global,reloc=2,class=CODE,delta=1
    32                           	psect	text18,global,reloc=2,class=CODE,delta=1
    33                           	psect	text19,global,reloc=2,class=CODE,delta=1
    34                           	psect	text20,global,reloc=2,class=CODE,delta=1
    35                           	psect	text21,global,reloc=2,class=CODE,delta=1
    36                           	psect	text22,global,reloc=2,class=CODE,delta=1
    37                           	psect	text23,global,reloc=2,class=CODE,delta=1
    38                           	psect	text24,global,reloc=2,class=CODE,delta=1
    39                           	psect	text25,global,reloc=2,class=CODE,delta=1
    40                           	psect	text26,global,reloc=2,class=CODE,delta=1
    41                           	psect	text27,global,reloc=2,class=CODE,delta=1
    42                           	psect	text28,global,reloc=2,class=CODE,delta=1
    43                           	psect	text29,global,reloc=2,class=CODE,delta=1
    44                           	psect	text30,global,reloc=2,class=CODE,delta=1
    45                           	psect	text31,global,reloc=2,class=CODE,delta=1
    46                           	psect	text32,global,reloc=2,class=CODE,delta=1
    47                           	psect	text33,global,reloc=2,class=CODE,delta=1
    48                           	psect	text34,global,reloc=2,class=CODE,delta=1
    49                           	psect	text35,global,reloc=2,class=CODE,delta=1
    50                           	psect	text36,global,reloc=2,class=CODE,delta=1,group=1
    51                           	psect	text37,global,reloc=2,class=CODE,delta=1
    52                           	psect	text38,global,reloc=2,class=CODE,delta=1
    53                           	psect	text39,global,reloc=2,class=CODE,delta=1
    54                           	psect	text40,global,reloc=2,class=CODE,delta=1,group=1
    55                           	psect	text41,global,reloc=2,class=CODE,delta=1
    56                           	psect	text42,global,reloc=2,class=CODE,delta=1
    57                           	psect	text43,global,reloc=2,class=CODE,delta=1
    58                           	psect	text44,global,reloc=2,class=CODE,delta=1,group=1
    59                           	psect	intsave_regs,global,class=BIGRAM,space=1,delta=1,noexec
    60                           	psect	rparam,global,class=COMRAM,space=1,delta=1,noexec
    61  0000                     
    62                           ; Version 1.45
    63                           ; Generated 16/11/2017 GMT
    64                           ; 
    65                           ; Copyright © 2017, Microchip Technology Inc. and its subsidiaries ("Microchip")
    66                           ; All rights reserved.
    67                           ; 
    68                           ; This software is developed by Microchip Technology Inc. and its subsidiaries ("Microch
      +                          ip").
    69                           ; 
    70                           ; Redistribution and use in source and binary forms, with or without modification, are
    71                           ; permitted provided that the following conditions are met:
    72                           ; 
    73                           ;     1. Redistributions of source code must retain the above copyright notice, this lis
      +                          t of
    74                           ;        conditions and the following disclaimer.
    75                           ; 
    76                           ;     2. Redistributions in binary form must reproduce the above copyright notice, this 
      +                          list
    77                           ;        of conditions and the following disclaimer in the documentation and/or other
    78                           ;        materials provided with the distribution.
    79                           ; 
    80                           ;     3. Microchip's name may not be used to endorse or promote products derived from th
      +                          is
    81                           ;        software without specific prior written permission.
    82                           ; 
    83                           ; THIS SOFTWARE IS PROVIDED BY MICROCHIP "AS IS" AND ANY EXPRESS OR IMPLIED WARRANTIES,
    84                           ; INCLUDING, BUT NOT LIMITED TO, THE IMPLIED WARRANTIES OF MERCHANTABILITY AND FITNESS F
      +                          OR
    85                           ; PURPOSE ARE DISCLAIMED.  IN NO EVENT SHALL MICROCHIP BE LIABLE FOR ANY DIRECT, INDIREC
      +                          T,
    86                           ; INCIDENTAL, SPECIAL, EXEMPLARY, OR CONSEQUENTIAL DAMAGES (INCLUDING BUT NOT LIMITED TO
    87                           ; PROCUREMENT OF SUBSTITUTE GOODS OR SERVICES; LOSS OF USE, DATA OR PROFITS; OR BUSINESS
    88                           ; INTERRUPTION) HOWSOEVER CAUSED AND ON ANY THEORY OF LIABILITY, WHETHER IN CONTRACT, ST
      +                          RICT
    89                           ; LIABILITY, OR TORT (INCLUDING NEGLIGENCE OR OTHERWISE) ARISING IN ANY WAY OUT OF THE U
      +                          SE OF
    90                           ; THIS SOFTWARE, EVEN IF ADVISED OF THE POSSIBILITY OF SUCH DAMAGE.
    91                           ; 
    92                           ; 
    93                           ; Code-generator required, PIC18F4620 Definitions
    94                           ; 
    95                           ; SFR Addresses
    96  0000                     
    97                           	psect	idataCOMRAM
    98  00234C                     __pidataCOMRAM:
    99                           	opt stack 0
   100                           
   101                           ;initializer for _LCD_INIT_STRING
   102  00234C  28                 	db	40
   103  00234D  0C                 	db	12
   104  00234E  01                 	db	1
   105  00234F  06                 	db	6
   106                           
   107                           	psect	idataBANK0
   108  002350                     __pidataBANK0:
   109                           	opt stack 0
   110                           
   111                           ;initializer for _ServoDirection
   112  002350  01                 	db	1
   113                           
   114                           	psect	smallconst
   115  001000                     __psmallconst:
   116                           	opt stack 0
   117  001000  00                 	db	0
   118  001001                     _ADC:
   119                           	opt stack 0
   120  001001  00                 	db	0
   121  001002  01                 	db	1
   122  001003  02                 	db	2
   123  001004  03                 	db	3
   124  001005  04                 	db	4
   125  001006  05                 	db	5
   126  001007  06                 	db	6
   127  001008  07                 	db	7
   128  001009  08                 	db	8
   129  00100A  09                 	db	9
   130  00100B  0A                 	db	10
   131  00100C  0B                 	db	11
   132  00100D  0C                 	db	12
   133  00100E                     __end_of_ADC:
   134                           	opt stack 0
   135  00100E                     _dpowers:
   136                           	opt stack 0
   137  00100E  0001               	dw	1
   138  001010  000A               	dw	10
   139  001012  0064               	dw	100
   140  001014  03E8               	dw	1000
   141  001016  2710               	dw	10000
   142  001018                     __end_of_dpowers:
   143                           	opt stack 0
   144  0000                     _TRISC	set	3988
   145  0000                     _TRISE	set	3990
   146  0000                     _TRISD	set	3989
   147  0000                     _TRISB	set	3987
   148  0000                     _TRISA	set	3986
   149  0000                     _LATE	set	3981
   150  0000                     _LATD	set	3980
   151  0000                     _LATC	set	3979
   152  0000                     _LATB	set	3978
   153  0000                     _LATA	set	3977
   154  0000                     _ADCON1	set	4033
   155  0000                     _CVRCON	set	4021
   156  0000                     _CMCON	set	4020
   157  0000                     _PORTCbits	set	3970
   158  0000                     _TMR1L	set	4046
   159  0000                     _TMR1H	set	4047
   160  0000                     _T1CON	set	4045
   161  0000                     _LATBbits	set	3978
   162  0000                     _PORTBbits	set	3969
   163  0000                     _LATCbits	set	3979
   164  0000                     _TXREG	set	4013
   165  0000                     _PIR1bits	set	3998
   166  0000                     _RCREG	set	4014
   167  0000                     _RCSTAbits	set	4011
   168  0000                     _RCSTA	set	4011
   169  0000                     _TXSTAbits	set	4012
   170  0000                     _SPBRGH	set	4016
   171  0000                     _SPBRG	set	4015
   172  0000                     _TXSTA	set	4012
   173  0000                     _BAUDCONbits	set	4024
   174  0000                     _IPR1	set	3999
   175  0000                     _IPR2	set	4002
   176  0000                     _PIR2	set	4001
   177  0000                     _PIR1	set	3998
   178  0000                     _PIE2	set	4000
   179  0000                     _PIE1	set	3997
   180  0000                     _INTCON3bits	set	4080
   181  0000                     _INTCON3	set	4080
   182  0000                     _INTCON2	set	4081
   183  0000                     _INTCONbits	set	4082
   184  0000                     _INTCON	set	4082
   185  0000                     _RCONbits	set	4048
   186  0000                     _ADRESL	set	4035
   187  0000                     _ADRESH	set	4036
   188  0000                     _ADCON2bits	set	4032
   189  0000                     _ADCON2	set	4032
   190  0000                     _ADCON0bits	set	4034
   191  0000                     _ADCON0	set	4034
   192  001018                     STR_2:
   193  001018  54                 	db	84	;'T'
   194  001019  3A                 	db	58	;':'
   195  00101A  25                 	db	37
   196  00101B  33                 	db	51	;'3'
   197  00101C  75                 	db	117	;'u'
   198  00101D  2E                 	db	46
   199  00101E  25                 	db	37
   200  00101F  75                 	db	117	;'u'
   201  001020  43                 	db	67	;'C'
   202  001021  20                 	db	32
   203  001022  56                 	db	86	;'V'
   204  001023  3A                 	db	58	;':'
   205  001024  25                 	db	37
   206  001025  75                 	db	117	;'u'
   207  001026  2E                 	db	46
   208  001027  25                 	db	37
   209  001028  75                 	db	117	;'u'
   210  001029  56                 	db	86	;'V'
   211  00102A  20                 	db	32
   212  00102B  00                 	db	0
   213  00102C                     STR_6:
   214  00102C  4E                 	db	78	;'N'
   215  00102D  65                 	db	101	;'e'
   216  00102E  61                 	db	97	;'a'
   217  00102F  72                 	db	114	;'r'
   218  001030  20                 	db	32
   219  001031  41                 	db	65	;'A'
   220  001032  6C                 	db	108	;'l'
   221  001033  65                 	db	101	;'e'
   222  001034  72                 	db	114	;'r'
   223  001035  74                 	db	116	;'t'
   224  001036  20                 	db	32
   225  001037  20                 	db	32
   226  001038  20                 	db	32
   227  001039  20                 	db	32
   228  00103A  20                 	db	32
   229  00103B  20                 	db	32
   230  00103C  00                 	db	0
   231  00103D                     STR_8:
   232  00103D  41                 	db	65	;'A'
   233  00103E  3A                 	db	58	;':'
   234  00103F  25                 	db	37
   235  001040  33                 	db	51	;'3'
   236  001041  75                 	db	117	;'u'
   237  001042  20                 	db	32
   238  001043  44                 	db	68	;'D'
   239  001044  3A                 	db	58	;':'
   240  001045  2D                 	db	45
   241  001046  2D                 	db	45
   242  001047  2D                 	db	45
   243  001048  20                 	db	32
   244  001049  20                 	db	32
   245  00104A  20                 	db	32
   246  00104B  20                 	db	32
   247  00104C  20                 	db	32
   248  00104D  00                 	db	0
   249  00104E                     STR_7:
   250  00104E  52                 	db	82	;'R'
   251  00104F  61                 	db	97	;'a'
   252  001050  64                 	db	100	;'d'
   253  001051  61                 	db	97	;'a'
   254  001052  72                 	db	114	;'r'
   255  001053  20                 	db	32
   256  001054  53                 	db	83	;'S'
   257  001055  77                 	db	119	;'w'
   258  001056  65                 	db	101	;'e'
   259  001057  65                 	db	101	;'e'
   260  001058  70                 	db	112	;'p'
   261  001059  20                 	db	32
   262  00105A  20                 	db	32
   263  00105B  20                 	db	32
   264  00105C  20                 	db	32
   265  00105D  20                 	db	32
   266  00105E  00                 	db	0
   267  00105F                     STR_4:
   268  00105F  41                 	db	65	;'A'
   269  001060  3A                 	db	58	;':'
   270  001061  25                 	db	37
   271  001062  33                 	db	51	;'3'
   272  001063  75                 	db	117	;'u'
   273  001064  20                 	db	32
   274  001065  44                 	db	68	;'D'
   275  001066  3A                 	db	58	;':'
   276  001067  25                 	db	37
   277  001068  33                 	db	51	;'3'
   278  001069  75                 	db	117	;'u'
   279  00106A  20                 	db	32
   280  00106B  63                 	db	99	;'c'
   281  00106C  6D                 	db	109	;'m'
   282  00106D  20                 	db	32
   283  00106E  20                 	db	32
   284  00106F  00                 	db	0
   285  001070                     STR_1:
   286  001070  53                 	db	83	;'S'
   287  001071  74                 	db	116	;'t'
   288  001072  61                 	db	97	;'a'
   289  001073  72                 	db	114	;'r'
   290  001074  74                 	db	116	;'t'
   291  001075  69                 	db	105	;'i'
   292  001076  6E                 	db	110	;'n'
   293  001077  67                 	db	103	;'g'
   294  001078  2E                 	db	46
   295  001079  2E                 	db	46
   296  00107A  2E                 	db	46
   297  00107B  00                 	db	0
   298  00107C                     STR_3:
   299  00107C  4D                 	db	77	;'M'
   300  00107D  2C                 	db	44
   301  00107E  25                 	db	37
   302  00107F  75                 	db	117	;'u'
   303  001080  2C                 	db	44
   304  001081  25                 	db	37
   305  001082  75                 	db	117	;'u'
   306  001083  0D                 	db	13
   307  001084  0A                 	db	10
   308  001085  00                 	db	0
   309  001086                     STR_9:
   310  001086  25                 	db	37
   311  001087  75                 	db	117	;'u'
   312  001088  2C                 	db	44
   313  001089  30                 	db	48	;'0'
   314  00108A  0D                 	db	13
   315  00108B  0A                 	db	10
   316  00108C  00                 	db	0
   317  0000                     
   318                           ; #config settings
   319  00108D  00                 	db	0	; dummy byte at the end
   320  0000                     
   321                           	psect	cinit
   322  001EBC                     __pcinit:
   323                           	opt stack 0
   324  001EBC                     start_initialization:
   325                           	opt stack 0
   326  001EBC                     __initialization:
   327                           	opt stack 0
   328                           
   329                           ; Initialize objects allocated to BANK0 (1 bytes)
   330                           ; load TBLPTR registers with __pidataBANK0
   331  001EBC  0E50               	movlw	low __pidataBANK0
   332  001EBE  6EF6               	movwf	tblptrl,c
   333  001EC0  0E23               	movlw	high __pidataBANK0
   334  001EC2  6EF7               	movwf	tblptrh,c
   335  001EC4  0E00               	movlw	low (__pidataBANK0 shr (0+16))
   336  001EC6  6EF8               	movwf	tblptru,c
   337  001EC8  0009               	tblrd		*+	;fetch initializer
   338  001ECA  CFF5 F0BA          	movff	tablat,__pdataBANK0
   339                           
   340                           ; Initialize objects allocated to COMRAM (4 bytes)
   341                           ; load TBLPTR registers with __pidataCOMRAM
   342  001ECE  0E4C               	movlw	low __pidataCOMRAM
   343  001ED0  6EF6               	movwf	tblptrl,c
   344  001ED2  0E23               	movlw	high __pidataCOMRAM
   345  001ED4  6EF7               	movwf	tblptrh,c
   346  001ED6  0E00               	movlw	low (__pidataCOMRAM shr (0+16))
   347  001ED8  6EF8               	movwf	tblptru,c
   348  001EDA  EE00  F052         	lfsr	0,__pdataCOMRAM
   349  001EDE  EE10 F004          	lfsr	1,4
   350  001EE2                     copy_data0:
   351  001EE2  0009               	tblrd		*+
   352  001EE4  CFF5 FFEE          	movff	tablat,postinc0
   353  001EE8  50E5               	movf	postdec1,w,c
   354  001EEA  50E1               	movf	fsr1l,w,c
   355  001EEC  E1FA               	bnz	copy_data0
   356                           
   357                           ; Clear objects allocated to BANK0 (5 bytes)
   358  001EEE  0100               	movlb	0
   359  001EF0  6BB9               	clrf	(__pbssBANK0+4)& (0+255),b
   360  001EF2  6BB8               	clrf	(__pbssBANK0+3)& (0+255),b
   361  001EF4  6BB7               	clrf	(__pbssBANK0+2)& (0+255),b
   362  001EF6  6BB6               	clrf	(__pbssBANK0+1)& (0+255),b
   363  001EF8  6BB5               	clrf	__pbssBANK0& (0+255),b
   364  001EFA                     end_of_initialization:
   365                           	opt stack 0
   366  001EFA                     __end_of__initialization:
   367                           	opt stack 0
   368  001EFA  0E00               	movlw	low (__Lmediumconst shr (0+16))
   369  001EFC  6EF8               	movwf	tblptru,c
   370  001EFE  0100               	movlb	0
   371  001F00  EF47  F008         	goto	_main	;jump to C main() function
   372                           tblptru	equ	0xFF8
   373                           tblptrh	equ	0xFF7
   374                           tblptrl	equ	0xFF6
   375                           tablat	equ	0xFF5
   376                           postinc0	equ	0xFEE
   377                           postdec1	equ	0xFE5
   378                           fsr1l	equ	0xFE1
   379                           
   380                           	psect	dataCOMRAM
   381  000052                     __pdataCOMRAM:
   382                           	opt stack 0
   383  000052                     _LCD_INIT_STRING:
   384                           	opt stack 0
   385  000052                     	ds	4
   386                           tblptru	equ	0xFF8
   387                           tblptrh	equ	0xFF7
   388                           tblptrl	equ	0xFF6
   389                           tablat	equ	0xFF5
   390                           postinc0	equ	0xFEE
   391                           postdec1	equ	0xFE5
   392                           fsr1l	equ	0xFE1
   393                           
   394                           	psect	bssBANK0
   395  0000B5                     __pbssBANK0:
   396                           	opt stack 0
   397  0000B5                     _counter:
   398                           	opt stack 0
   399  0000B5                     	ds	2
   400  0000B7                     _ServoAngle:
   401                           	opt stack 0
   402  0000B7                     	ds	1
   403  0000B8                     _TogglePart:
   404                           	opt stack 0
   405  0000B8                     	ds	1
   406  0000B9                     _Flags:
   407                           	opt stack 0
   408  0000B9                     	ds	1
   409                           tblptru	equ	0xFF8
   410                           tblptrh	equ	0xFF7
   411                           tblptrl	equ	0xFF6
   412                           tablat	equ	0xFF5
   413                           postinc0	equ	0xFEE
   414                           postdec1	equ	0xFE5
   415                           fsr1l	equ	0xFE1
   416                           
   417                           	psect	dataBANK0
   418  0000BA                     __pdataBANK0:
   419                           	opt stack 0
   420  0000BA                     _ServoDirection:
   421                           	opt stack 0
   422  0000BA                     	ds	1
   423                           tblptru	equ	0xFF8
   424                           tblptrh	equ	0xFF7
   425                           tblptrl	equ	0xFF6
   426                           tablat	equ	0xFF5
   427                           postinc0	equ	0xFEE
   428                           postdec1	equ	0xFE5
   429                           fsr1l	equ	0xFE1
   430                           
   431                           	psect	cstackBANK0
   432  000080                     __pcstackBANK0:
   433                           	opt stack 0
   434  000080                     main@Buffer:
   435                           	opt stack 0
   436                           
   437                           ; 32 bytes @ 0x0
   438  000080                     	ds	32
   439  0000A0                     main@temp_raw:
   440                           	opt stack 0
   441                           
   442                           ; 2 bytes @ 0x20
   443  0000A0                     	ds	2
   444  0000A2                     main@pot_raw:
   445                           	opt stack 0
   446                           
   447                           ; 2 bytes @ 0x22
   448  0000A2                     	ds	2
   449  0000A4                     main@volt_mv:
   450                           	opt stack 0
   451                           
   452                           ; 2 bytes @ 0x24
   453  0000A4                     	ds	2
   454  0000A6                     _main$1795:
   455                           	opt stack 0
   456                           
   457                           ; 2 bytes @ 0x26
   458  0000A6                     	ds	2
   459  0000A8                     _main$1796:
   460                           	opt stack 0
   461                           
   462                           ; 2 bytes @ 0x28
   463  0000A8                     	ds	2
   464  0000AA                     _main$1797:
   465                           	opt stack 0
   466                           
   467                           ; 2 bytes @ 0x2A
   468  0000AA                     	ds	2
   469  0000AC                     _main$1798:
   470                           	opt stack 0
   471                           
   472                           ; 2 bytes @ 0x2C
   473  0000AC                     	ds	2
   474  0000AE                     main@temp_x10:
   475                           	opt stack 0
   476                           
   477                           ; 2 bytes @ 0x2E
   478  0000AE                     	ds	2
   479  0000B0                     main@volt_x10:
   480                           	opt stack 0
   481                           
   482                           ; 2 bytes @ 0x30
   483  0000B0                     	ds	2
   484  0000B2                     main@update_timer:
   485                           	opt stack 0
   486                           
   487                           ; 2 bytes @ 0x32
   488  0000B2                     	ds	2
   489  0000B4                     main@receivedMsg:
   490                           	opt stack 0
   491                           
   492                           ; 1 bytes @ 0x34
   493  0000B4                     	ds	1
   494                           tblptru	equ	0xFF8
   495                           tblptrh	equ	0xFF7
   496                           tblptrl	equ	0xFF6
   497                           tablat	equ	0xFF5
   498                           postinc0	equ	0xFEE
   499                           postdec1	equ	0xFE5
   500                           fsr1l	equ	0xFE1
   501                           
   502                           	psect	cstackCOMRAM
   503  000001                     __pcstackCOMRAM:
   504                           	opt stack 0
   505  000001                     ??_isdigit:
   506  000001                     ??_delay_cycles:
   507  000001                     ?_readADC_raw:
   508                           	opt stack 0
   509  000001                     ?_timer1_read_us:
   510                           	opt stack 0
   511  000001                     ?___wmul:
   512                           	opt stack 0
   513  000001                     ?___lwdiv:
   514                           	opt stack 0
   515  000001                     ?___lmul:
   516                           	opt stack 0
   517  000001                     setupSerial@dummy:
   518                           	opt stack 0
   519  000001                     read_byte_no_lib@c:
   520                           	opt stack 0
   521  000001                     send_byte_no_lib@c:
   522                           	opt stack 0
   523  000001                     buzzer_beep@cycles:
   524                           	opt stack 0
   525  000001                     delay_ms@n:
   526                           	opt stack 0
   527  000001                     delay_us_var@us:
   528                           	opt stack 0
   529  000001                     delay_ms_var@ms:
   530                           	opt stack 0
   531  000001                     sort_samples@samples:
   532                           	opt stack 0
   533  000001                     ___wmul@multiplier:
   534                           	opt stack 0
   535  000001                     ___lwdiv@dividend:
   536                           	opt stack 0
   537  000001                     ___lmul@multiplier:
   538                           	opt stack 0
   539                           
   540                           ; 4 bytes @ 0x0
   541  000001                     	ds	1
   542  000002                     buzzer_beep@i:
   543                           	opt stack 0
   544  000002                     _isdigit$1399:
   545                           	opt stack 0
   546  000002                     send_string_no_lib@p:
   547                           	opt stack 0
   548                           
   549                           ; 2 bytes @ 0x1
   550  000002                     	ds	1
   551  000003                     ??_readADC_raw:
   552  000003                     ??_timer1_read_us:
   553  000003                     sort_samples@count:
   554                           	opt stack 0
   555  000003                     isdigit@c:
   556                           	opt stack 0
   557  000003                     delay_ms@x:
   558                           	opt stack 0
   559  000003                     servo_pulse_us@pulse_us:
   560                           	opt stack 0
   561  000003                     ___wmul@multiplicand:
   562                           	opt stack 0
   563  000003                     ___lwdiv@divisor:
   564                           	opt stack 0
   565                           
   566                           ; 2 bytes @ 0x2
   567  000003                     	ds	1
   568  000004                     delay_cycles@n:
   569                           	opt stack 0
   570                           
   571                           ; 1 bytes @ 0x3
   572  000004                     	ds	1
   573  000005                     ??_servo_pulse_us:
   574  000005                     timer1_read_us@low_byte:
   575                           	opt stack 0
   576  000005                     delay_cycles@x:
   577                           	opt stack 0
   578  000005                     readADC_raw@raw_value:
   579                           	opt stack 0
   580  000005                     soundBuzzer@i:
   581                           	opt stack 0
   582  000005                     ___wmul@product:
   583                           	opt stack 0
   584  000005                     ___lwdiv@quotient:
   585                           	opt stack 0
   586  000005                     ___lmul@multiplicand:
   587                           	opt stack 0
   588                           
   589                           ; 4 bytes @ 0x4
   590  000005                     	ds	1
   591  000006                     timer1_read_us@high_byte:
   592                           	opt stack 0
   593                           
   594                           ; 1 bytes @ 0x5
   595  000006                     	ds	1
   596  000007                     ??_lcd_send_nibble:
   597  000007                     readADC_raw@channel:
   598                           	opt stack 0
   599  000007                     ___lwdiv@counter:
   600                           	opt stack 0
   601  000007                     timer1_timeout@timeout_us:
   602                           	opt stack 0
   603                           
   604                           ; 2 bytes @ 0x6
   605  000007                     	ds	1
   606  000008                     ?___lwmod:
   607                           	opt stack 0
   608  000008                     lcd_send_nibble@n:
   609                           	opt stack 0
   610  000008                     sort_samples@temp:
   611                           	opt stack 0
   612  000008                     ___lwmod@dividend:
   613                           	opt stack 0
   614                           
   615                           ; 2 bytes @ 0x7
   616  000008                     	ds	1
   617  000009                     lcd_send_byte@n:
   618                           	opt stack 0
   619  000009                     hcsr04_read_once@distance_cm:
   620                           	opt stack 0
   621  000009                     ___lmul@product:
   622                           	opt stack 0
   623                           
   624                           ; 4 bytes @ 0x8
   625  000009                     	ds	1
   626  00000A                     lcd_send_byte@cm_data:
   627                           	opt stack 0
   628  00000A                     sort_samples@j:
   629                           	opt stack 0
   630  00000A                     ___lwmod@divisor:
   631                           	opt stack 0
   632                           
   633                           ; 2 bytes @ 0x9
   634  00000A                     	ds	1
   635  00000B                     lcd_init@i:
   636                           	opt stack 0
   637  00000B                     lcd_gotoxy@y:
   638                           	opt stack 0
   639  00000B                     sort_samples@i:
   640                           	opt stack 0
   641  00000B                     hcsr04_read_once@pulse_us:
   642                           	opt stack 0
   643                           
   644                           ; 2 bytes @ 0xA
   645  00000B                     	ds	1
   646  00000C                     lcd_gotoxy@x:
   647                           	opt stack 0
   648  00000C                     ___lwmod@counter:
   649                           	opt stack 0
   650                           
   651                           ; 1 bytes @ 0xB
   652  00000C                     	ds	1
   653  00000D                     ?_sprintf:
   654                           	opt stack 0
   655  00000D                     ?___lldiv:
   656                           	opt stack 0
   657  00000D                     lcd_gotoxy@address:
   658                           	opt stack 0
   659  00000D                     hcsr04_read_once@cm:
   660                           	opt stack 0
   661  00000D                     sprintf@sp:
   662                           	opt stack 0
   663  00000D                     ___lldiv@dividend:
   664                           	opt stack 0
   665                           
   666                           ; 4 bytes @ 0xC
   667  00000D                     	ds	1
   668  00000E                     lcd_putc@c:
   669                           	opt stack 0
   670                           
   671                           ; 1 bytes @ 0xD
   672  00000E                     	ds	1
   673  00000F                     lcd_clear_line@row:
   674                           	opt stack 0
   675  00000F                     lcd_puts@s:
   676                           	opt stack 0
   677  00000F                     hcsr04_read_filtered@distance_cm:
   678                           	opt stack 0
   679  00000F                     sprintf@f:
   680                           	opt stack 0
   681                           
   682                           ; 2 bytes @ 0xE
   683  00000F                     	ds	1
   684  000010                     lcd_clear_line@i:
   685                           	opt stack 0
   686                           
   687                           ; 1 bytes @ 0xF
   688  000010                     	ds	1
   689  000011                     ??_hcsr04_read_filtered:
   690  000011                     ___lldiv@divisor:
   691                           	opt stack 0
   692                           
   693                           ; 4 bytes @ 0x10
   694  000011                     	ds	4
   695  000015                     hcsr04_read_filtered@lower_delta:
   696                           	opt stack 0
   697  000015                     ___lldiv@quotient:
   698                           	opt stack 0
   699                           
   700                           ; 4 bytes @ 0x14
   701  000015                     	ds	2
   702  000017                     hcsr04_read_filtered@upper_delta:
   703                           	opt stack 0
   704                           
   705                           ; 2 bytes @ 0x16
   706  000017                     	ds	2
   707  000019                     ??_sprintf:
   708  000019                     ___lldiv@counter:
   709                           	opt stack 0
   710  000019                     hcsr04_read_filtered@reading:
   711                           	opt stack 0
   712                           
   713                           ; 2 bytes @ 0x18
   714  000019                     	ds	1
   715  00001A                     ?_adc_average_raw:
   716                           	opt stack 0
   717  00001A                     ?_lm35_celsius_x10:
   718                           	opt stack 0
   719  00001A                     ?_adc_raw_to_mv:
   720                           	opt stack 0
   721  00001A                     ?_servo_angle_to_us:
   722                           	opt stack 0
   723  00001A                     adc_average_raw@samples:
   724                           	opt stack 0
   725  00001A                     adc_raw_to_mv@raw_value:
   726                           	opt stack 0
   727  00001A                     lm35_celsius_x10@raw_value:
   728                           	opt stack 0
   729                           
   730                           ; 2 bytes @ 0x19
   731  00001A                     	ds	1
   732  00001B                     hcsr04_read_filtered@i:
   733                           	opt stack 0
   734                           
   735                           ; 1 bytes @ 0x1A
   736  00001B                     	ds	1
   737  00001C                     ??_adc_average_raw:
   738  00001C                     hcsr04_read_filtered@valid:
   739                           	opt stack 0
   740  00001C                     servo_angle_to_us@pulse_us:
   741                           	opt stack 0
   742                           
   743                           ; 4 bytes @ 0x1B
   744  00001C                     	ds	1
   745  00001D                     sprintf@flag:
   746                           	opt stack 0
   747  00001D                     adc_average_raw@sum:
   748                           	opt stack 0
   749  00001D                     hcsr04_read_filtered@samples:
   750                           	opt stack 0
   751                           
   752                           ; 6 bytes @ 0x1C
   753  00001D                     	ds	1
   754  00001E                     sprintf@ap:
   755                           	opt stack 0
   756                           
   757                           ; 2 bytes @ 0x1D
   758  00001E                     	ds	2
   759  000020                     servo_angle_to_us@angle:
   760                           	opt stack 0
   761  000020                     sprintf@val:
   762                           	opt stack 0
   763                           
   764                           ; 2 bytes @ 0x1F
   765  000020                     	ds	1
   766  000021                     adc_average_raw@i:
   767                           	opt stack 0
   768  000021                     servo_set_angle@pulse_us:
   769                           	opt stack 0
   770                           
   771                           ; 2 bytes @ 0x20
   772  000021                     	ds	1
   773  000022                     adc_average_raw@channel:
   774                           	opt stack 0
   775  000022                     sprintf@prec:
   776                           	opt stack 0
   777                           
   778                           ; 1 bytes @ 0x21
   779  000022                     	ds	1
   780  000023                     servo_set_angle@angle:
   781                           	opt stack 0
   782  000023                     sprintf@width:
   783                           	opt stack 0
   784                           
   785                           ; 2 bytes @ 0x22
   786  000023                     	ds	1
   787  000024                     servo_set_angle@i:
   788                           	opt stack 0
   789                           
   790                           ; 1 bytes @ 0x23
   791  000024                     	ds	1
   792  000025                     sprintf@c:
   793                           	opt stack 0
   794                           
   795                           ; 1 bytes @ 0x24
   796  000025                     	ds	1
   797  000026                     execute_part2_radar@SerialBuffer:
   798                           	opt stack 0
   799                           
   800                           ; 24 bytes @ 0x25
   801  000026                     	ds	24
   802  00003E                     execute_part2_radar@Buffer:
   803                           	opt stack 0
   804                           
   805                           ; 17 bytes @ 0x3D
   806  00003E                     	ds	17
   807  00004F                     execute_part2_radar@distance_cm:
   808                           	opt stack 0
   809                           
   810                           ; 2 bytes @ 0x4E
   811  00004F                     	ds	2
   812  000051                     execute_part2_radar@angle_now:
   813                           	opt stack 0
   814                           
   815                           ; 1 bytes @ 0x50
   816  000051                     	ds	1
   817  000052                     tblptru	equ	0xFF8
   818                           tblptrh	equ	0xFF7
   819                           tblptrl	equ	0xFF6
   820                           tablat	equ	0xFF5
   821                           postinc0	equ	0xFEE
   822                           postdec1	equ	0xFE5
   823                           fsr1l	equ	0xFE1
   824                           
   825                           ; 1 bytes @ 0x51
   826 ;;
   827 ;;Main: autosize = 0, tempsize = 0, incstack = 0, save=0
   828 ;;
   829 ;; *************** function _main *****************
   830 ;; Defined at:
   831 ;;		line 151 in file "ourProject.c"
   832 ;; Parameters:    Size  Location     Type
   833 ;;		None
   834 ;; Auto vars:     Size  Location     Type
   835 ;;  Buffer         32    0[BANK0 ] unsigned char [32]
   836 ;;  update_timer    2   50[BANK0 ] int 
   837 ;;  volt_x10        2   48[BANK0 ] unsigned int 
   838 ;;  temp_x10        2   46[BANK0 ] unsigned int 
   839 ;;  volt_mv         2   36[BANK0 ] unsigned int 
   840 ;;  pot_raw         2   34[BANK0 ] unsigned int 
   841 ;;  temp_raw        2   32[BANK0 ] unsigned int 
   842 ;;  receivedMsg     1   52[BANK0 ] unsigned char 
   843 ;; Return value:  Size  Location     Type
   844 ;;                  1    wreg      void 
   845 ;; Registers used:
   846 ;;		wreg, fsr0l, fsr0h, fsr1l, fsr1h, fsr2l, fsr2h, status,2, status,0, tblptrl, tblptrh, tblptru, prodl, prodh, cstack
   847 ;; Tracked objects:
   848 ;;		On entry : 0/0
   849 ;;		On exit  : 0/0
   850 ;;		Unchanged: 0/0
   851 ;; Data sizes:     COMRAM   BANK0   BANK1   BANK2   BANK3   BANK4   BANK5   BANK6   BANK7   BANK8   BANK9  BANK10  BANK1
      +1  BANK12  BANK13  BANK14  BANK15
   852 ;;      Params:         0       0       0       0       0       0       0       0       0       0       0       0       
      +0       0       0       0       0
   853 ;;      Locals:         0      53       0       0       0       0       0       0       0       0       0       0       
      +0       0       0       0       0
   854 ;;      Temps:          0       0       0       0       0       0       0       0       0       0       0       0       
      +0       0       0       0       0
   855 ;;      Totals:         0      53       0       0       0       0       0       0       0       0       0       0       
      +0       0       0       0       0
   856 ;;Total ram usage:       53 bytes
   857 ;; Hardware stack levels required when called:    7
   858 ;; This function calls:
   859 ;;		___lwdiv
   860 ;;		___lwmod
   861 ;;		_adc_average_raw
   862 ;;		_adc_raw_to_mv
   863 ;;		_delay_ms
   864 ;;		_execute_part2_radar
   865 ;;		_initADC
   866 ;;		_initPorts
   867 ;;		_initTimer1
   868 ;;		_is_byte_available
   869 ;;		_lcd_clear_line
   870 ;;		_lcd_gotoxy
   871 ;;		_lcd_init
   872 ;;		_lcd_putc
   873 ;;		_lcd_puts
   874 ;;		_lm35_celsius_x10
   875 ;;		_read_byte_no_lib
   876 ;;		_send_byte_no_lib
   877 ;;		_servo_set_angle
   878 ;;		_setupSerial
   879 ;;		_soundBuzzer
   880 ;;		_sprintf
   881 ;; This function is called by:
   882 ;;		Startup code after reset
   883 ;; This function uses a non-reentrant model
   884 ;;
   885                           
   886                           	psect	text0
   887  00108E                     __ptext0:
   888                           	opt stack 0
   889  00108E                     _main:
   890                           	opt stack 24
   891                           
   892                           ;ourProject.c: 153: char Buffer[32];
   893                           ;ourProject.c: 154: unsigned int temp_raw;
   894                           ;ourProject.c: 155: unsigned int pot_raw;
   895                           ;ourProject.c: 156: unsigned int temp_x10;
   896                           ;ourProject.c: 157: unsigned int volt_mv;
   897                           ;ourProject.c: 158: unsigned int volt_x10;
   898                           ;ourProject.c: 159: char receivedMsg;
   899                           ;ourProject.c: 161: int update_timer = 16;
   900                           
   901                           ;incstack = 0
   902  00108E  0E00               	movlw	0
   903  001090  0100               	movlb	0	; () banked
   904  001092  6FB3               	movwf	(main@update_timer+1)& (0+255),b
   905  001094  0E10               	movlw	16
   906  001096  6FB2               	movwf	main@update_timer& (0+255),b
   907                           
   908                           ; BSR set to: 0
   909                           ;ourProject.c: 163: initPorts();
   910  001098  ECA6  F00F         	call	_initPorts	;wreg free
   911                           
   912                           ;ourProject.c: 165: delay_ms(100);
   913  00109C  0E00               	movlw	0
   914  00109E  6E02               	movwf	delay_ms@n+1,c
   915  0010A0  0E64               	movlw	100
   916  0010A2  6E01               	movwf	delay_ms@n,c
   917  0010A4  ECEA  F010         	call	_delay_ms	;wreg free
   918                           
   919                           ;ourProject.c: 167: lcd_init();
   920  0010A8  EC01  F00E         	call	_lcd_init	;wreg free
   921                           
   922                           ;ourProject.c: 168: delay_ms(20);
   923  0010AC  0E00               	movlw	0
   924  0010AE  6E02               	movwf	delay_ms@n+1,c
   925  0010B0  0E14               	movlw	20
   926  0010B2  6E01               	movwf	delay_ms@n,c
   927  0010B4  ECEA  F010         	call	_delay_ms	;wreg free
   928                           
   929                           ;ourProject.c: 170: lcd_putc('\f');
   930  0010B8  0E0C               	movlw	12
   931  0010BA  EC89  F00E         	call	_lcd_putc
   932                           
   933                           ;ourProject.c: 171: delay_ms(5);
   934  0010BE  0E00               	movlw	0
   935  0010C0  6E02               	movwf	delay_ms@n+1,c
   936  0010C2  0E05               	movlw	5
   937  0010C4  6E01               	movwf	delay_ms@n,c
   938  0010C6  ECEA  F010         	call	_delay_ms	;wreg free
   939                           
   940                           ;ourProject.c: 172: lcd_putc('\f');
   941  0010CA  0E0C               	movlw	12
   942  0010CC  EC89  F00E         	call	_lcd_putc
   943                           
   944                           ;ourProject.c: 173: delay_ms(5);
   945  0010D0  0E00               	movlw	0
   946  0010D2  6E02               	movwf	delay_ms@n+1,c
   947  0010D4  0E05               	movlw	5
   948  0010D6  6E01               	movwf	delay_ms@n,c
   949  0010D8  ECEA  F010         	call	_delay_ms	;wreg free
   950                           
   951                           ;ourProject.c: 175: lcd_gotoxy(0,0);
   952  0010DC  0E00               	movlw	0
   953  0010DE  6E0B               	movwf	lcd_gotoxy@y,c
   954  0010E0  0E00               	movlw	0
   955  0010E2  ECE9  F00F         	call	_lcd_gotoxy
   956                           
   957                           ;ourProject.c: 176: lcd_puts("Starting...");
   958  0010E6  0E70               	movlw	low STR_1
   959  0010E8  6E0F               	movwf	lcd_puts@s,c
   960  0010EA  0E10               	movlw	high STR_1
   961  0010EC  6E10               	movwf	lcd_puts@s+1,c
   962  0010EE  EC5E  F00E         	call	_lcd_puts	;wreg free
   963                           
   964                           ;ourProject.c: 177: delay_ms(500);
   965  0010F2  0E01               	movlw	1
   966  0010F4  6E02               	movwf	delay_ms@n+1,c
   967  0010F6  0EF4               	movlw	244
   968  0010F8  6E01               	movwf	delay_ms@n,c
   969  0010FA  ECEA  F010         	call	_delay_ms	;wreg free
   970                           
   971                           ;ourProject.c: 179: setupSerial();
   972  0010FE  ECFD  F010         	call	_setupSerial	;wreg free
   973                           
   974                           ;ourProject.c: 180: initADC();
   975  001102  EC42  F011         	call	_initADC	;wreg free
   976                           
   977                           ;ourProject.c: 181: initTimer1();
   978  001106  EC8F  F011         	call	_initTimer1	;wreg free
   979                           
   980                           ;ourProject.c: 182: delay_ms(100);
   981  00110A  0E00               	movlw	0
   982  00110C  6E02               	movwf	delay_ms@n+1,c
   983  00110E  0E64               	movlw	100
   984  001110  6E01               	movwf	delay_ms@n,c
   985  001112  ECEA  F010         	call	_delay_ms	;wreg free
   986                           
   987                           ;ourProject.c: 184: Flags.b0 = 0;
   988  001116  0100               	movlb	0	; () banked
   989  001118  91B9               	bcf	_Flags& (0+255),0,b
   990                           
   991                           ; BSR set to: 0
   992                           ;ourProject.c: 185: counter = 0;
   993  00111A  0E00               	movlw	0
   994  00111C  6FB6               	movwf	(_counter+1)& (0+255),b
   995  00111E  0E00               	movlw	0
   996  001120  6FB5               	movwf	_counter& (0+255),b
   997  001122                     l279:
   998  001122  0004               	clrwdt		;# 
   999                           
  1000                           ;ourProject.c: 190: if(PORTBbits.RB0 == 0) {
  1001  001124  B081               	btfsc	3969,0,c	;volatile
  1002  001126  D038               	goto	l280
  1003                           
  1004                           ;ourProject.c: 191: delay_ms(20);
  1005  001128  0E00               	movlw	0
  1006  00112A  6E02               	movwf	delay_ms@n+1,c
  1007  00112C  0E14               	movlw	20
  1008  00112E  6E01               	movwf	delay_ms@n,c
  1009  001130  ECEA  F010         	call	_delay_ms	;wreg free
  1010                           
  1011                           ;ourProject.c: 192: if(PORTBbits.RB0 == 0 && Flags.b0 == 0) {
  1012  001134  B081               	btfsc	3969,0,c	;volatile
  1013  001136  D032               	goto	l284
  1014  001138  0100               	movlb	0	; () banked
  1015  00113A  B1B9               	btfsc	_Flags& (0+255),0,b
  1016  00113C  D02F               	goto	l284
  1017                           
  1018                           ; BSR set to: 0
  1019                           ;ourProject.c: 193: TogglePart = !TogglePart;
  1020  00113E  51B8               	movf	_TogglePart& (0+255),w,b
  1021  001140  A4D8               	btfss	status,2,c
  1022  001142  D002               	goto	u1830
  1023  001144  0E01               	movlw	1
  1024  001146  D001               	goto	u1840
  1025  001148                     u1830:
  1026  001148  0E00               	movlw	0
  1027  00114A                     u1840:
  1028  00114A  6FB8               	movwf	_TogglePart& (0+255),b
  1029                           
  1030                           ; BSR set to: 0
  1031                           ;ourProject.c: 194: Flags.b0 = 1;
  1032  00114C  81B9               	bsf	_Flags& (0+255),0,b
  1033                           
  1034                           ;ourProject.c: 195: if(TogglePart) {
  1035  00114E  51B8               	movf	_TogglePart& (0+255),w,b
  1036  001150  B4D8               	btfsc	status,2,c
  1037  001152  D00C               	goto	l282
  1038                           
  1039                           ; BSR set to: 0
  1040                           ;ourProject.c: 196: LATCbits.LATC2 = 0;
  1041  001154  948B               	bcf	3979,2,c	;volatile
  1042                           
  1043                           ;ourProject.c: 197: LATBbits.LATB2 = 0;
  1044  001156  948A               	bcf	3978,2,c	;volatile
  1045                           
  1046                           ;ourProject.c: 198: LATCbits.LATC1 = 0;
  1047  001158  928B               	bcf	3979,1,c	;volatile
  1048                           
  1049                           ;ourProject.c: 199: LATCbits.LATC0 = 0;
  1050  00115A  908B               	bcf	3979,0,c	;volatile
  1051                           
  1052                           ; BSR set to: 0
  1053                           ;ourProject.c: 200: ServoAngle = 0;
  1054  00115C  0E00               	movlw	0
  1055  00115E  6FB7               	movwf	_ServoAngle& (0+255),b
  1056                           
  1057                           ;ourProject.c: 201: ServoDirection = 1;
  1058  001160  0E01               	movlw	1
  1059  001162  6FBA               	movwf	_ServoDirection& (0+255),b
  1060                           
  1061                           ; BSR set to: 0
  1062                           ;ourProject.c: 202: servo_set_angle(ServoAngle);
  1063  001164  51B7               	movf	_ServoAngle& (0+255),w,b
  1064  001166  ECAB  F010         	call	_servo_set_angle
  1065                           
  1066                           ;ourProject.c: 203: }
  1067  00116A  D003               	goto	l283
  1068  00116C                     l282:
  1069                           
  1070                           ; BSR set to: 0
  1071                           ;ourProject.c: 204: else {
  1072                           ;ourProject.c: 205: LATBbits.LATB2 = 0;
  1073  00116C  948A               	bcf	3978,2,c	;volatile
  1074                           
  1075                           ;ourProject.c: 206: LATCbits.LATC2 = 0;
  1076  00116E  948B               	bcf	3979,2,c	;volatile
  1077                           
  1078                           ;ourProject.c: 207: LATCbits.LATC1 = 0;
  1079  001170  928B               	bcf	3979,1,c	;volatile
  1080  001172                     l283:
  1081                           
  1082                           ;ourProject.c: 208: }
  1083                           ;ourProject.c: 210: lcd_putc('\f');
  1084                           
  1085                           ; BSR set to: 0
  1086  001172  0E0C               	movlw	12
  1087  001174  EC89  F00E         	call	_lcd_putc
  1088                           
  1089                           ;ourProject.c: 211: delay_ms(5);
  1090  001178  0E00               	movlw	0
  1091  00117A  6E02               	movwf	delay_ms@n+1,c
  1092  00117C  0E05               	movlw	5
  1093  00117E  6E01               	movwf	delay_ms@n,c
  1094  001180  ECEA  F010         	call	_delay_ms	;wreg free
  1095                           
  1096                           ;ourProject.c: 212: update_timer = 16;
  1097  001184  0E00               	movlw	0
  1098  001186  0100               	movlb	0	; () banked
  1099  001188  6FB3               	movwf	(main@update_timer+1)& (0+255),b
  1100  00118A  0E10               	movlw	16
  1101  00118C  6FB2               	movwf	main@update_timer& (0+255),b
  1102                           
  1103                           ; BSR set to: 0
  1104                           ;ourProject.c: 213: counter = 0;
  1105  00118E  0E00               	movlw	0
  1106  001190  6FB6               	movwf	(_counter+1)& (0+255),b
  1107  001192  0E00               	movlw	0
  1108  001194  6FB5               	movwf	_counter& (0+255),b
  1109                           
  1110                           ; BSR set to: 0
  1111                           ;ourProject.c: 214: }
  1112                           ;ourProject.c: 215: }
  1113  001196  D002               	goto	l284
  1114  001198                     l280:
  1115                           
  1116                           ;ourProject.c: 216: else {
  1117                           ;ourProject.c: 217: Flags.b0 = 0;
  1118  001198  0100               	movlb	0	; () banked
  1119  00119A  91B9               	bcf	_Flags& (0+255),0,b
  1120  00119C                     l284:
  1121                           
  1122                           ;ourProject.c: 218: }
  1123                           ;ourProject.c: 220: if(RCSTAbits.OERR) {
  1124  00119C  A2AB               	btfss	4011,1,c	;volatile
  1125  00119E  D002               	goto	l285
  1126                           
  1127                           ;ourProject.c: 221: RCSTAbits.CREN = 0;
  1128  0011A0  98AB               	bcf	4011,4,c	;volatile
  1129                           
  1130                           ;ourProject.c: 222: RCSTAbits.CREN = 1;
  1131  0011A2  88AB               	bsf	4011,4,c	;volatile
  1132  0011A4                     l285:
  1133                           
  1134                           ;ourProject.c: 223: }
  1135                           ;ourProject.c: 226: if(TogglePart == 0) {
  1136  0011A4  0100               	movlb	0	; () banked
  1137  0011A6  51B8               	movf	_TogglePart& (0+255),w,b
  1138  0011A8  A4D8               	btfss	status,2,c
  1139  0011AA  D0E0               	goto	l286
  1140                           
  1141                           ; BSR set to: 0
  1142                           ;ourProject.c: 229: if(update_timer >= 16) {
  1143  0011AC  BFB3               	btfsc	(main@update_timer+1)& (0+255),7,b
  1144  0011AE  D0AE               	goto	l287
  1145  0011B0  51B3               	movf	(main@update_timer+1)& (0+255),w,b
  1146  0011B2  E104               	bnz	u1880
  1147  0011B4  0E10               	movlw	16
  1148  0011B6  5DB2               	subwf	main@update_timer& (0+255),w,b
  1149  0011B8  A0D8               	btfss	status,0,c
  1150  0011BA  D0A8               	goto	l287
  1151  0011BC                     u1880:
  1152                           
  1153                           ; BSR set to: 0
  1154                           ;ourProject.c: 230: temp_raw = adc_average_raw(ADC.CH1, 10U);
  1155  0011BC  0E0A               	movlw	10
  1156  0011BE  6E1A               	movwf	adc_average_raw@samples,c
  1157  0011C0  0E02               	movlw	low (_ADC+1)
  1158  0011C2  6EF6               	movwf	tblptrl,c
  1159  0011C4  0E10               	movlw	high (_ADC+1)
  1160  0011C6  6EF7               	movwf	tblptrh,c
  1161  0011C8                     	if	0	;tblptru may be non-zero
  1162  0011C8                     	endif
  1163  0011C8                     	if	0	;tblptru may be non-zero
  1164  0011C8                     	endif
  1165  0011C8  0008               	tblrd		*
  1166  0011CA  50F5               	movf	tablat,w,c
  1167  0011CC  EC3D  F00D         	call	_adc_average_raw
  1168  0011D0  C01A  F0A0         	movff	?_adc_average_raw,main@temp_raw
  1169  0011D4  C01B  F0A1         	movff	?_adc_average_raw+1,main@temp_raw+1
  1170                           
  1171                           ;ourProject.c: 231: temp_x10 = lm35_celsius_x10(temp_raw);
  1172  0011D8  C0A0  F01A         	movff	main@temp_raw,lm35_celsius_x10@raw_value
  1173  0011DC  C0A1  F01B         	movff	main@temp_raw+1,lm35_celsius_x10@raw_value+1
  1174  0011E0  EC33  F00E         	call	_lm35_celsius_x10	;wreg free
  1175  0011E4  C01A  F0AE         	movff	?_lm35_celsius_x10,main@temp_x10
  1176  0011E8  C01B  F0AF         	movff	?_lm35_celsius_x10+1,main@temp_x10+1
  1177                           
  1178                           ;ourProject.c: 233: pot_raw = adc_average_raw(ADC.CH0, 10U);
  1179  0011EC  0E0A               	movlw	10
  1180  0011EE  6E1A               	movwf	adc_average_raw@samples,c
  1181  0011F0  0E01               	movlw	low _ADC
  1182  0011F2  6EF6               	movwf	tblptrl,c
  1183  0011F4                     	if	1	;There is more than 1 active tblptr byte
  1184  0011F4  0E10               	movlw	high _ADC
  1185  0011F6  6EF7               	movwf	tblptrh,c
  1186  0011F8                     	endif
  1187  0011F8                     	if	0	;There are less than 3 active tblptr bytes
  1188  0011F8                     	endif
  1189  0011F8  0008               	tblrd		*
  1190  0011FA  50F5               	movf	tablat,w,c
  1191  0011FC  EC3D  F00D         	call	_adc_average_raw
  1192  001200  C01A  F0A2         	movff	?_adc_average_raw,main@pot_raw
  1193  001204  C01B  F0A3         	movff	?_adc_average_raw+1,main@pot_raw+1
  1194                           
  1195                           ;ourProject.c: 234: volt_mv = adc_raw_to_mv(pot_raw);
  1196  001208  C0A2  F01A         	movff	main@pot_raw,adc_raw_to_mv@raw_value
  1197  00120C  C0A3  F01B         	movff	main@pot_raw+1,adc_raw_to_mv@raw_value+1
  1198  001210  ECDF  F00E         	call	_adc_raw_to_mv	;wreg free
  1199  001214  C01A  F0A4         	movff	?_adc_raw_to_mv,main@volt_mv
  1200  001218  C01B  F0A5         	movff	?_adc_raw_to_mv+1,main@volt_mv+1
  1201                           
  1202                           ;ourProject.c: 235: volt_x10 = (volt_mv + 50U) / 100U;
  1203  00121C  0E32               	movlw	50
  1204  00121E  0100               	movlb	0	; () banked
  1205  001220  25A4               	addwf	main@volt_mv& (0+255),w,b
  1206  001222  6E01               	movwf	___lwdiv@dividend,c
  1207  001224  0E00               	movlw	0
  1208  001226  21A5               	addwfc	(main@volt_mv+1)& (0+255),w,b
  1209  001228  6E02               	movwf	___lwdiv@dividend+1,c
  1210  00122A  0E00               	movlw	0
  1211  00122C  6E04               	movwf	___lwdiv@divisor+1,c
  1212  00122E  0E64               	movlw	100
  1213  001230  6E03               	movwf	___lwdiv@divisor,c
  1214  001232  EC35  F00F         	call	___lwdiv	;wreg free
  1215  001236  C001  F0B0         	movff	?___lwdiv,main@volt_x10
  1216  00123A  C002  F0B1         	movff	?___lwdiv+1,main@volt_x10+1
  1217                           
  1218                           ;ourProject.c: 237: lcd_gotoxy(0, 0);
  1219  00123E  0E00               	movlw	0
  1220  001240  6E0B               	movwf	lcd_gotoxy@y,c
  1221  001242  0E00               	movlw	0
  1222  001244  ECE9  F00F         	call	_lcd_gotoxy
  1223                           
  1224                           ;ourProject.c: 238: sprintf(Buffer, "T:%3u.%uC V:%u.%uV ",
  1225                           ;ourProject.c: 239: temp_x10 / 10U,
  1226                           ;ourProject.c: 240: temp_x10 % 10U,
  1227                           ;ourProject.c: 241: volt_x10 / 10U,
  1228                           ;ourProject.c: 242: volt_x10 % 10U);
  1229  001248  C0AE  F001         	movff	main@temp_x10,___lwdiv@dividend
  1230  00124C  C0AF  F002         	movff	main@temp_x10+1,___lwdiv@dividend+1
  1231  001250  0E00               	movlw	0
  1232  001252  6E04               	movwf	___lwdiv@divisor+1,c
  1233  001254  0E0A               	movlw	10
  1234  001256  6E03               	movwf	___lwdiv@divisor,c
  1235  001258  EC35  F00F         	call	___lwdiv	;wreg free
  1236  00125C  C001  F0A6         	movff	?___lwdiv,_main$1795
  1237  001260  C002  F0A7         	movff	?___lwdiv+1,_main$1795+1
  1238                           
  1239                           ;ourProject.c: 238: sprintf(Buffer, "T:%3u.%uC V:%u.%uV ",
  1240                           ;ourProject.c: 239: temp_x10 / 10U,
  1241                           ;ourProject.c: 240: temp_x10 % 10U,
  1242                           ;ourProject.c: 241: volt_x10 / 10U,
  1243                           ;ourProject.c: 242: volt_x10 % 10U);
  1244  001264  C0AE  F008         	movff	main@temp_x10,___lwmod@dividend
  1245  001268  C0AF  F009         	movff	main@temp_x10+1,___lwmod@dividend+1
  1246  00126C  0E00               	movlw	0
  1247  00126E  6E0B               	movwf	___lwmod@divisor+1,c
  1248  001270  0E0A               	movlw	10
  1249  001272  6E0A               	movwf	___lwmod@divisor,c
  1250  001274  ECC8  F00F         	call	___lwmod	;wreg free
  1251  001278  C008  F0A8         	movff	?___lwmod,_main$1796
  1252  00127C  C009  F0A9         	movff	?___lwmod+1,_main$1796+1
  1253                           
  1254                           ;ourProject.c: 238: sprintf(Buffer, "T:%3u.%uC V:%u.%uV ",
  1255                           ;ourProject.c: 239: temp_x10 / 10U,
  1256                           ;ourProject.c: 240: temp_x10 % 10U,
  1257                           ;ourProject.c: 241: volt_x10 / 10U,
  1258                           ;ourProject.c: 242: volt_x10 % 10U);
  1259  001280  C0B0  F001         	movff	main@volt_x10,___lwdiv@dividend
  1260  001284  C0B1  F002         	movff	main@volt_x10+1,___lwdiv@dividend+1
  1261  001288  0E00               	movlw	0
  1262  00128A  6E04               	movwf	___lwdiv@divisor+1,c
  1263  00128C  0E0A               	movlw	10
  1264  00128E  6E03               	movwf	___lwdiv@divisor,c
  1265  001290  EC35  F00F         	call	___lwdiv	;wreg free
  1266  001294  C001  F0AA         	movff	?___lwdiv,_main$1797
  1267  001298  C002  F0AB         	movff	?___lwdiv+1,_main$1797+1
  1268                           
  1269                           ;ourProject.c: 238: sprintf(Buffer, "T:%3u.%uC V:%u.%uV ",
  1270                           ;ourProject.c: 239: temp_x10 / 10U,
  1271                           ;ourProject.c: 240: temp_x10 % 10U,
  1272                           ;ourProject.c: 241: volt_x10 / 10U,
  1273                           ;ourProject.c: 242: volt_x10 % 10U);
  1274  00129C  C0B0  F008         	movff	main@volt_x10,___lwmod@dividend
  1275  0012A0  C0B1  F009         	movff	main@volt_x10+1,___lwmod@dividend+1
  1276  0012A4  0E00               	movlw	0
  1277  0012A6  6E0B               	movwf	___lwmod@divisor+1,c
  1278  0012A8  0E0A               	movlw	10
  1279  0012AA  6E0A               	movwf	___lwmod@divisor,c
  1280  0012AC  ECC8  F00F         	call	___lwmod	;wreg free
  1281  0012B0  C008  F0AC         	movff	?___lwmod,_main$1798
  1282  0012B4  C009  F0AD         	movff	?___lwmod+1,_main$1798+1
  1283                           
  1284                           ;ourProject.c: 238: sprintf(Buffer, "T:%3u.%uC V:%u.%uV ",
  1285                           ;ourProject.c: 239: temp_x10 / 10U,
  1286                           ;ourProject.c: 240: temp_x10 % 10U,
  1287                           ;ourProject.c: 241: volt_x10 / 10U,
  1288                           ;ourProject.c: 242: volt_x10 % 10U);
  1289  0012B8  0E80               	movlw	low main@Buffer
  1290  0012BA  6E0D               	movwf	sprintf@sp,c
  1291  0012BC  0E00               	movlw	high main@Buffer
  1292  0012BE  6E0E               	movwf	sprintf@sp+1,c
  1293  0012C0  0E18               	movlw	low STR_2
  1294  0012C2  6E0F               	movwf	sprintf@f,c
  1295  0012C4  0E10               	movlw	high STR_2
  1296  0012C6  6E10               	movwf	sprintf@f+1,c
  1297  0012C8  C0A6  F011         	movff	_main$1795,?_sprintf+4
  1298  0012CC  C0A7  F012         	movff	_main$1795+1,?_sprintf+5
  1299  0012D0  C0A8  F013         	movff	_main$1796,?_sprintf+6
  1300  0012D4  C0A9  F014         	movff	_main$1796+1,?_sprintf+7
  1301  0012D8  C0AA  F015         	movff	_main$1797,?_sprintf+8
  1302  0012DC  C0AB  F016         	movff	_main$1797+1,?_sprintf+9
  1303  0012E0  C0AC  F017         	movff	_main$1798,?_sprintf+10
  1304  0012E4  C0AD  F018         	movff	_main$1798+1,?_sprintf+11
  1305  0012E8  ECCF  F009         	call	_sprintf	;wreg free
  1306                           
  1307                           ;ourProject.c: 243: lcd_puts(Buffer);
  1308  0012EC  0E80               	movlw	low main@Buffer
  1309  0012EE  6E0F               	movwf	lcd_puts@s,c
  1310  0012F0  0E00               	movlw	high main@Buffer
  1311  0012F2  6E10               	movwf	lcd_puts@s+1,c
  1312  0012F4  EC5E  F00E         	call	_lcd_puts	;wreg free
  1313                           
  1314                           ;ourProject.c: 244: lcd_gotoxy(0, 1);
  1315  0012F8  0E01               	movlw	1
  1316  0012FA  6E0B               	movwf	lcd_gotoxy@y,c
  1317  0012FC  0E00               	movlw	0
  1318  0012FE  ECE9  F00F         	call	_lcd_gotoxy
  1319                           
  1320                           ;ourProject.c: 245: update_timer = 0;
  1321  001302  0E00               	movlw	0
  1322  001304  0100               	movlb	0	; () banked
  1323  001306  6FB3               	movwf	(main@update_timer+1)& (0+255),b
  1324  001308  0E00               	movlw	0
  1325  00130A  6FB2               	movwf	main@update_timer& (0+255),b
  1326  00130C                     l287:
  1327                           
  1328                           ; BSR set to: 0
  1329                           ;ourProject.c: 246: }
  1330                           ;ourProject.c: 249: if(is_byte_available()){
  1331                           
  1332                           ; BSR set to: 0
  1333  00130C  EC6E  F011         	call	_is_byte_available	;wreg free
  1334  001310  0900               	iorlw	0
  1335  001312  B4D8               	btfsc	status,2,c
  1336  001314  D03A               	goto	l292
  1337                           
  1338                           ;ourProject.c: 250: receivedMsg = read_byte_no_lib();
  1339  001316  EC9F  F011         	call	_read_byte_no_lib	;wreg free
  1340  00131A  0100               	movlb	0	; () banked
  1341  00131C  6FB4               	movwf	main@receivedMsg& (0+255),b
  1342                           
  1343                           ;ourProject.c: 251: send_byte_no_lib(receivedMsg);
  1344  00131E  51B4               	movf	main@receivedMsg& (0+255),w,b
  1345  001320  EC97  F011         	call	_send_byte_no_lib
  1346                           
  1347                           ;ourProject.c: 253: if(receivedMsg == 'B') {
  1348  001324  0E42               	movlw	66
  1349  001326  0100               	movlb	0	; () banked
  1350  001328  19B4               	xorwf	main@receivedMsg& (0+255),w,b
  1351  00132A  B4D8               	btfsc	status,2,c
  1352                           
  1353                           ; BSR set to: 0
  1354                           ;ourProject.c: 254: soundBuzzer();
  1355  00132C  EC0A  F010         	call	_soundBuzzer	;wreg free
  1356                           
  1357                           ;ourProject.c: 255: }
  1358                           ;ourProject.c: 258: if(counter >= 16){
  1359  001330  0100               	movlb	0	; () banked
  1360  001332  BFB6               	btfsc	(_counter+1)& (0+255),7,b
  1361  001334  D00E               	goto	l290
  1362  001336  51B6               	movf	(_counter+1)& (0+255),w,b
  1363  001338  E104               	bnz	u1910
  1364  00133A  0E10               	movlw	16
  1365  00133C  5DB5               	subwf	_counter& (0+255),w,b
  1366  00133E  A0D8               	btfss	status,0,c
  1367  001340  D008               	goto	l290
  1368  001342                     u1910:
  1369                           
  1370                           ; BSR set to: 0
  1371                           ;ourProject.c: 259: lcd_clear_line(1);
  1372  001342  0E01               	movlw	1
  1373  001344  EC7D  F010         	call	_lcd_clear_line
  1374                           
  1375                           ;ourProject.c: 260: counter = 0;
  1376  001348  0E00               	movlw	0
  1377  00134A  0100               	movlb	0	; () banked
  1378  00134C  6FB6               	movwf	(_counter+1)& (0+255),b
  1379  00134E  0E00               	movlw	0
  1380  001350  6FB5               	movwf	_counter& (0+255),b
  1381  001352                     l290:
  1382                           
  1383                           ; BSR set to: 0
  1384                           ;ourProject.c: 261: }
  1385                           ;ourProject.c: 263: lcd_gotoxy(counter, 1);
  1386                           
  1387                           ; BSR set to: 0
  1388  001352  0E01               	movlw	1
  1389  001354  6E0B               	movwf	lcd_gotoxy@y,c
  1390  001356  51B5               	movf	_counter& (0+255),w,b
  1391  001358  ECE9  F00F         	call	_lcd_gotoxy
  1392                           
  1393                           ;ourProject.c: 264: lcd_putc(receivedMsg);
  1394  00135C  0100               	movlb	0	; () banked
  1395  00135E  51B4               	movf	main@receivedMsg& (0+255),w,b
  1396  001360  EC89  F00E         	call	_lcd_putc
  1397                           
  1398                           ;ourProject.c: 265: counter++;
  1399  001364  0100               	movlb	0	; () banked
  1400  001366  4BB5               	infsnz	_counter& (0+255),f,b
  1401  001368  2BB6               	incf	(_counter+1)& (0+255),f,b
  1402                           
  1403                           ; BSR set to: 0
  1404                           ;ourProject.c: 267: }
  1405                           ;ourProject.c: 268: }
  1406  00136A  D00F               	goto	l292
  1407  00136C                     l286:
  1408                           
  1409                           ; BSR set to: 0
  1410                           ;ourProject.c: 269: else {
  1411                           ;ourProject.c: 271: if(update_timer >= 2) {
  1412                           
  1413                           ; BSR set to: 0
  1414  00136C  BFB3               	btfsc	(main@update_timer+1)& (0+255),7,b
  1415  00136E  D00D               	goto	l292
  1416  001370  51B3               	movf	(main@update_timer+1)& (0+255),w,b
  1417  001372  E104               	bnz	u1920
  1418  001374  0E02               	movlw	2
  1419  001376  5DB2               	subwf	main@update_timer& (0+255),w,b
  1420  001378  A0D8               	btfss	status,0,c
  1421  00137A  D007               	goto	l292
  1422  00137C                     u1920:
  1423                           
  1424                           ; BSR set to: 0
  1425                           ;ourProject.c: 272: execute_part2_radar();
  1426  00137C  ECB2  F00B         	call	_execute_part2_radar	;wreg free
  1427                           
  1428                           ;ourProject.c: 273: update_timer = 0;
  1429  001380  0E00               	movlw	0
  1430  001382  0100               	movlb	0	; () banked
  1431  001384  6FB3               	movwf	(main@update_timer+1)& (0+255),b
  1432  001386  0E00               	movlw	0
  1433  001388  6FB2               	movwf	main@update_timer& (0+255),b
  1434  00138A                     l292:
  1435                           
  1436                           ;ourProject.c: 274: }
  1437                           ;ourProject.c: 275: }
  1438                           ;ourProject.c: 277: update_timer++;
  1439                           
  1440                           ; BSR set to: 0
  1441                           
  1442                           ; BSR set to: 0
  1443  00138A  0100               	movlb	0	; () banked
  1444  00138C  4BB2               	infsnz	main@update_timer& (0+255),f,b
  1445  00138E  2BB3               	incf	(main@update_timer+1)& (0+255),f,b
  1446                           
  1447                           ; BSR set to: 0
  1448                           ;ourProject.c: 278: delay_ms(50);
  1449  001390  0E00               	movlw	0
  1450  001392  6E02               	movwf	delay_ms@n+1,c
  1451  001394  0E32               	movlw	50
  1452  001396  6E01               	movwf	delay_ms@n,c
  1453  001398  ECEA  F010         	call	_delay_ms	;wreg free
  1454  00139C  D6C2               	goto	l279
  1455  00139E                     __end_of_main:
  1456                           	opt stack 0
  1457                           tblptru	equ	0xFF8
  1458                           tblptrh	equ	0xFF7
  1459                           tblptrl	equ	0xFF6
  1460                           tablat	equ	0xFF5
  1461                           postinc0	equ	0xFEE
  1462                           postdec1	equ	0xFE5
  1463                           fsr1l	equ	0xFE1
  1464                           status	equ	0xFD8
  1465                           
  1466 ;; *************** function _soundBuzzer *****************
  1467 ;; Defined at:
  1468 ;;		line 130 in file "ourProject.c"
  1469 ;; Parameters:    Size  Location     Type
  1470 ;;		None
  1471 ;; Auto vars:     Size  Location     Type
  1472 ;;  i               2    4[COMRAM] int 
  1473 ;; Return value:  Size  Location     Type
  1474 ;;                  1    wreg      void 
  1475 ;; Registers used:
  1476 ;;		wreg, status,2, status,0, cstack
  1477 ;; Tracked objects:
  1478 ;;		On entry : 0/0
  1479 ;;		On exit  : 0/0
  1480 ;;		Unchanged: 0/0
  1481 ;; Data sizes:     COMRAM   BANK0   BANK1   BANK2   BANK3   BANK4   BANK5   BANK6   BANK7   BANK8   BANK9  BANK10  BANK1
      +1  BANK12  BANK13  BANK14  BANK15
  1482 ;;      Params:         0       0       0       0       0       0       0       0       0       0       0       0       
      +0       0       0       0       0
  1483 ;;      Locals:         2       0       0       0       0       0       0       0       0       0       0       0       
      +0       0       0       0       0
  1484 ;;      Temps:          0       0       0       0       0       0       0       0       0       0       0       0       
      +0       0       0       0       0
  1485 ;;      Totals:         2       0       0       0       0       0       0       0       0       0       0       0       
      +0       0       0       0       0
  1486 ;;Total ram usage:        2 bytes
  1487 ;; Hardware stack levels used:    1
  1488 ;; Hardware stack levels required when called:    1
  1489 ;; This function calls:
  1490 ;;		_delay_ms
  1491 ;; This function is called by:
  1492 ;;		_main
  1493 ;; This function uses a non-reentrant model
  1494 ;;
  1495                           
  1496                           	psect	text1
  1497  002014                     __ptext1:
  1498                           	opt stack 0
  1499  002014                     _soundBuzzer:
  1500                           	opt stack 29
  1501                           
  1502                           ;ourProject.c: 131: for (int i = 0; i < 5; i++) {
  1503                           
  1504                           ;incstack = 0
  1505  002014  0E00               	movlw	0
  1506  002016  6E06               	movwf	soundBuzzer@i+1,c
  1507  002018  0E00               	movlw	0
  1508  00201A  6E05               	movwf	soundBuzzer@i,c
  1509  00201C                     l2551:
  1510  00201C  BE06               	btfsc	soundBuzzer@i+1,7,c
  1511  00201E  D006               	goto	l267
  1512  002020  5006               	movf	soundBuzzer@i+1,w,c
  1513  002022  E116               	bnz	l269
  1514  002024  0E05               	movlw	5
  1515  002026  5C05               	subwf	soundBuzzer@i,w,c
  1516  002028  B0D8               	btfsc	status,0,c
  1517  00202A  0012               	return	
  1518  00202C                     l267:
  1519                           
  1520                           ;ourProject.c: 132: LATCbits.LATC2 = 1;
  1521  00202C  848B               	bsf	3979,2,c	;volatile
  1522                           
  1523                           ;ourProject.c: 133: delay_ms(500);
  1524  00202E  0E01               	movlw	1
  1525  002030  6E02               	movwf	delay_ms@n+1,c
  1526  002032  0EF4               	movlw	244
  1527  002034  6E01               	movwf	delay_ms@n,c
  1528  002036  ECEA  F010         	call	_delay_ms	;wreg free
  1529                           
  1530                           ;ourProject.c: 134: LATCbits.LATC2 = 0;
  1531  00203A  948B               	bcf	3979,2,c	;volatile
  1532                           
  1533                           ;ourProject.c: 135: delay_ms(500);
  1534  00203C  0E01               	movlw	1
  1535  00203E  6E02               	movwf	delay_ms@n+1,c
  1536  002040  0EF4               	movlw	244
  1537  002042  6E01               	movwf	delay_ms@n,c
  1538  002044  ECEA  F010         	call	_delay_ms	;wreg free
  1539  002048  0004               	clrwdt		;# 
  1540  00204A  4A05               	infsnz	soundBuzzer@i,f,c
  1541  00204C  2A06               	incf	soundBuzzer@i+1,f,c
  1542  00204E  D7E6               	goto	l2551
  1543  002050                     l269:
  1544  002050  0012               	return		;funcret
  1545  002052                     __end_of_soundBuzzer:
  1546                           	opt stack 0
  1547                           tblptru	equ	0xFF8
  1548                           tblptrh	equ	0xFF7
  1549                           tblptrl	equ	0xFF6
  1550                           tablat	equ	0xFF5
  1551                           postinc0	equ	0xFEE
  1552                           postdec1	equ	0xFE5
  1553                           fsr1l	equ	0xFE1
  1554                           status	equ	0xFD8
  1555                           
  1556 ;; *************** function _setupSerial *****************
  1557 ;; Defined at:
  1558 ;;		line 3 in file "my_ser.c"
  1559 ;; Parameters:    Size  Location     Type
  1560 ;;		None
  1561 ;; Auto vars:     Size  Location     Type
  1562 ;;  dummy           1    0[COMRAM] unsigned char 
  1563 ;; Return value:  Size  Location     Type
  1564 ;;                  1    wreg      void 
  1565 ;; Registers used:
  1566 ;;		wreg, status,2
  1567 ;; Tracked objects:
  1568 ;;		On entry : 0/0
  1569 ;;		On exit  : 0/0
  1570 ;;		Unchanged: 0/0
  1571 ;; Data sizes:     COMRAM   BANK0   BANK1   BANK2   BANK3   BANK4   BANK5   BANK6   BANK7   BANK8   BANK9  BANK10  BANK1
      +1  BANK12  BANK13  BANK14  BANK15
  1572 ;;      Params:         0       0       0       0       0       0       0       0       0       0       0       0       
      +0       0       0       0       0
  1573 ;;      Locals:         1       0       0       0       0       0       0       0       0       0       0       0       
      +0       0       0       0       0
  1574 ;;      Temps:          0       0       0       0       0       0       0       0       0       0       0       0       
      +0       0       0       0       0
  1575 ;;      Totals:         1       0       0       0       0       0       0       0       0       0       0       0       
      +0       0       0       0       0
  1576 ;;Total ram usage:        1 bytes
  1577 ;; Hardware stack levels used:    1
  1578 ;; This function calls:
  1579 ;;		Nothing
  1580 ;; This function is called by:
  1581 ;;		_main
  1582 ;; This function uses a non-reentrant model
  1583 ;;
  1584                           
  1585                           	psect	text2
  1586  0021FA                     __ptext2:
  1587                           	opt stack 0
  1588  0021FA                     _setupSerial:
  1589                           	opt stack 30
  1590                           
  1591                           ;my_ser.c: 4: unsigned char dummy;
  1592                           ;my_ser.c: 5: BAUDCONbits.BRG16 = 0;
  1593                           
  1594                           ;incstack = 0
  1595  0021FA  96B8               	bcf	4024,3,c	;volatile
  1596                           
  1597                           ;my_ser.c: 6: TXSTA = 0;
  1598  0021FC  0E00               	movlw	0
  1599  0021FE  6EAC               	movwf	4012,c	;volatile
  1600                           
  1601                           ;my_ser.c: 7: SPBRG = 25;
  1602  002200  0E19               	movlw	25
  1603  002202  6EAF               	movwf	4015,c	;volatile
  1604                           
  1605                           ;my_ser.c: 8: SPBRGH = 0;
  1606  002204  0E00               	movlw	0
  1607  002206  6EB0               	movwf	4016,c	;volatile
  1608                           
  1609                           ;my_ser.c: 9: TXSTAbits.BRGH = 1;
  1610  002208  84AC               	bsf	4012,2,c	;volatile
  1611                           
  1612                           ;my_ser.c: 10: TXSTAbits.TXEN = 1;
  1613  00220A  8AAC               	bsf	4012,5,c	;volatile
  1614                           
  1615                           ;my_ser.c: 12: RCSTA = 0;
  1616  00220C  0E00               	movlw	0
  1617  00220E  6EAB               	movwf	4011,c	;volatile
  1618                           
  1619                           ;my_ser.c: 13: RCSTAbits.CREN = 1;
  1620  002210  88AB               	bsf	4011,4,c	;volatile
  1621                           
  1622                           ;my_ser.c: 14: RCSTAbits.SPEN = 1;
  1623  002212  8EAB               	bsf	4011,7,c	;volatile
  1624                           
  1625                           ;my_ser.c: 15: ;
  1626                           ;my_ser.c: 16: dummy = RCREG;
  1627  002214  CFAE F001          	movff	4014,setupSerial@dummy	;volatile
  1628                           
  1629                           ;my_ser.c: 17: dummy = RCREG;
  1630  002218  CFAE F001          	movff	4014,setupSerial@dummy	;volatile
  1631  00221C  0012               	return	
  1632  00221E                     __end_of_setupSerial:
  1633                           	opt stack 0
  1634                           tblptru	equ	0xFF8
  1635                           tblptrh	equ	0xFF7
  1636                           tblptrl	equ	0xFF6
  1637                           tablat	equ	0xFF5
  1638                           postinc0	equ	0xFEE
  1639                           postdec1	equ	0xFE5
  1640                           fsr1l	equ	0xFE1
  1641                           status	equ	0xFD8
  1642                           
  1643 ;; *************** function _read_byte_no_lib *****************
  1644 ;; Defined at:
  1645 ;;		line 33 in file "my_ser.c"
  1646 ;; Parameters:    Size  Location     Type
  1647 ;;		None
  1648 ;; Auto vars:     Size  Location     Type
  1649 ;;  c               1    0[COMRAM] unsigned char 
  1650 ;; Return value:  Size  Location     Type
  1651 ;;                  1    wreg      unsigned char 
  1652 ;; Registers used:
  1653 ;;		wreg, status,2
  1654 ;; Tracked objects:
  1655 ;;		On entry : 0/0
  1656 ;;		On exit  : 0/0
  1657 ;;		Unchanged: 0/0
  1658 ;; Data sizes:     COMRAM   BANK0   BANK1   BANK2   BANK3   BANK4   BANK5   BANK6   BANK7   BANK8   BANK9  BANK10  BANK1
      +1  BANK12  BANK13  BANK14  BANK15
  1659 ;;      Params:         0       0       0       0       0       0       0       0       0       0       0       0       
      +0       0       0       0       0
  1660 ;;      Locals:         1       0       0       0       0       0       0       0       0       0       0       0       
      +0       0       0       0       0
  1661 ;;      Temps:          0       0       0       0       0       0       0       0       0       0       0       0       
      +0       0       0       0       0
  1662 ;;      Totals:         1       0       0       0       0       0       0       0       0       0       0       0       
      +0       0       0       0       0
  1663 ;;Total ram usage:        1 bytes
  1664 ;; Hardware stack levels used:    1
  1665 ;; This function calls:
  1666 ;;		Nothing
  1667 ;; This function is called by:
  1668 ;;		_main
  1669 ;; This function uses a non-reentrant model
  1670 ;;
  1671                           
  1672                           	psect	text3
  1673  00233E                     __ptext3:
  1674                           	opt stack 0
  1675  00233E                     _read_byte_no_lib:
  1676                           	opt stack 30
  1677                           
  1678                           ;my_ser.c: 34: unsigned char c;
  1679                           ;my_ser.c: 35: c = RCREG;
  1680                           
  1681                           ;incstack = 0
  1682  00233E  CFAE F001          	movff	4014,read_byte_no_lib@c	;volatile
  1683                           
  1684                           ;my_ser.c: 36: return c;
  1685  002342  5001               	movf	read_byte_no_lib@c,w,c
  1686  002344  0012               	return	
  1687  002346                     __end_of_read_byte_no_lib:
  1688                           	opt stack 0
  1689                           tblptru	equ	0xFF8
  1690                           tblptrh	equ	0xFF7
  1691                           tblptrl	equ	0xFF6
  1692                           tablat	equ	0xFF5
  1693                           postinc0	equ	0xFEE
  1694                           postdec1	equ	0xFE5
  1695                           fsr1l	equ	0xFE1
  1696                           status	equ	0xFD8
  1697                           
  1698 ;; *************** function _lm35_celsius_x10 *****************
  1699 ;; Defined at:
  1700 ;;		line 375 in file "ourProject.c"
  1701 ;; Parameters:    Size  Location     Type
  1702 ;;  raw_value       2   25[COMRAM] unsigned int 
  1703 ;; Auto vars:     Size  Location     Type
  1704 ;;		None
  1705 ;; Return value:  Size  Location     Type
  1706 ;;                  2   25[COMRAM] unsigned int 
  1707 ;; Registers used:
  1708 ;;		wreg, status,2, status,0, cstack
  1709 ;; Tracked objects:
  1710 ;;		On entry : 0/0
  1711 ;;		On exit  : 0/0
  1712 ;;		Unchanged: 0/0
  1713 ;; Data sizes:     COMRAM   BANK0   BANK1   BANK2   BANK3   BANK4   BANK5   BANK6   BANK7   BANK8   BANK9  BANK10  BANK1
      +1  BANK12  BANK13  BANK14  BANK15
  1714 ;;      Params:         2       0       0       0       0       0       0       0       0       0       0       0       
      +0       0       0       0       0
  1715 ;;      Locals:         0       0       0       0       0       0       0       0       0       0       0       0       
      +0       0       0       0       0
  1716 ;;      Temps:          0       0       0       0       0       0       0       0       0       0       0       0       
      +0       0       0       0       0
  1717 ;;      Totals:         2       0       0       0       0       0       0       0       0       0       0       0       
      +0       0       0       0       0
  1718 ;;Total ram usage:        2 bytes
  1719 ;; Hardware stack levels used:    1
  1720 ;; Hardware stack levels required when called:    1
  1721 ;; This function calls:
  1722 ;;		___lldiv
  1723 ;;		___lmul
  1724 ;; This function is called by:
  1725 ;;		_main
  1726 ;; This function uses a non-reentrant model
  1727 ;;
  1728                           
  1729                           	psect	text4
  1730  001C66                     __ptext4:
  1731                           	opt stack 0
  1732  001C66                     _lm35_celsius_x10:
  1733                           	opt stack 29
  1734                           
  1735                           ;ourProject.c: 377: return (unsigned int)((((unsigned long)raw_value * 5000UL) + 511UL) 
      +                          / 1023UL);
  1736                           
  1737                           ;incstack = 0
  1738  001C66  C01A  F001         	movff	lm35_celsius_x10@raw_value,___lmul@multiplier
  1739  001C6A  C01B  F002         	movff	lm35_celsius_x10@raw_value+1,___lmul@multiplier+1
  1740  001C6E  6A03               	clrf	___lmul@multiplier+2,c
  1741  001C70  6A04               	clrf	___lmul@multiplier+3,c
  1742  001C72  0E88               	movlw	136
  1743  001C74  6E05               	movwf	___lmul@multiplicand,c
  1744  001C76  0E13               	movlw	19
  1745  001C78  6E06               	movwf	___lmul@multiplicand+1,c
  1746  001C7A  0E00               	movlw	0
  1747  001C7C  6E07               	movwf	___lmul@multiplicand+2,c
  1748  001C7E  0E00               	movlw	0
  1749  001C80  6E08               	movwf	___lmul@multiplicand+3,c
  1750  001C82  EC0A  F00F         	call	___lmul	;wreg free
  1751  001C86  0EFF               	movlw	255
  1752  001C88  2401               	addwf	?___lmul,w,c
  1753  001C8A  6E0D               	movwf	___lldiv@dividend,c
  1754  001C8C  0E01               	movlw	1
  1755  001C8E  2002               	addwfc	?___lmul+1,w,c
  1756  001C90  6E0E               	movwf	___lldiv@dividend+1,c
  1757  001C92  0E00               	movlw	0
  1758  001C94  2003               	addwfc	?___lmul+2,w,c
  1759  001C96  6E0F               	movwf	___lldiv@dividend+2,c
  1760  001C98  0E00               	movlw	0
  1761  001C9A  2004               	addwfc	?___lmul+3,w,c
  1762  001C9C  6E10               	movwf	___lldiv@dividend+3,c
  1763  001C9E  0EFF               	movlw	255
  1764  001CA0  6E11               	movwf	___lldiv@divisor,c
  1765  001CA2  0E03               	movlw	3
  1766  001CA4  6E12               	movwf	___lldiv@divisor+1,c
  1767  001CA6  0E00               	movlw	0
  1768  001CA8  6E13               	movwf	___lldiv@divisor+2,c
  1769  001CAA  0E00               	movlw	0
  1770  001CAC  6E14               	movwf	___lldiv@divisor+3,c
  1771  001CAE  EC84  F00D         	call	___lldiv	;wreg free
  1772  001CB2  C00D  F01A         	movff	?___lldiv,?_lm35_celsius_x10
  1773  001CB6  C00E  F01B         	movff	?___lldiv+1,?_lm35_celsius_x10+1
  1774  001CBA  0012               	return	
  1775  001CBC                     __end_of_lm35_celsius_x10:
  1776                           	opt stack 0
  1777                           tblptru	equ	0xFF8
  1778                           tblptrh	equ	0xFF7
  1779                           tblptrl	equ	0xFF6
  1780                           tablat	equ	0xFF5
  1781                           postinc0	equ	0xFEE
  1782                           postdec1	equ	0xFE5
  1783                           fsr1l	equ	0xFE1
  1784                           status	equ	0xFD8
  1785                           
  1786 ;; *************** function _lcd_init *****************
  1787 ;; Defined at:
  1788 ;;		line 56 in file "lcd_x8.c"
  1789 ;; Parameters:    Size  Location     Type
  1790 ;;		None
  1791 ;; Auto vars:     Size  Location     Type
  1792 ;;  i               1   10[COMRAM] unsigned char 
  1793 ;; Return value:  Size  Location     Type
  1794 ;;                  1    wreg      void 
  1795 ;; Registers used:
  1796 ;;		wreg, fsr2l, fsr2h, status,2, status,0, prodl, prodh, cstack
  1797 ;; Tracked objects:
  1798 ;;		On entry : 0/0
  1799 ;;		On exit  : 0/0
  1800 ;;		Unchanged: 0/0
  1801 ;; Data sizes:     COMRAM   BANK0   BANK1   BANK2   BANK3   BANK4   BANK5   BANK6   BANK7   BANK8   BANK9  BANK10  BANK1
      +1  BANK12  BANK13  BANK14  BANK15
  1802 ;;      Params:         0       0       0       0       0       0       0       0       0       0       0       0       
      +0       0       0       0       0
  1803 ;;      Locals:         1       0       0       0       0       0       0       0       0       0       0       0       
      +0       0       0       0       0
  1804 ;;      Temps:          0       0       0       0       0       0       0       0       0       0       0       0       
      +0       0       0       0       0
  1805 ;;      Totals:         1       0       0       0       0       0       0       0       0       0       0       0       
      +0       0       0       0       0
  1806 ;;Total ram usage:        1 bytes
  1807 ;; Hardware stack levels used:    1
  1808 ;; Hardware stack levels required when called:    3
  1809 ;; This function calls:
  1810 ;;		_delay_ms
  1811 ;;		_lcd_send_byte
  1812 ;;		_lcd_send_nibble
  1813 ;; This function is called by:
  1814 ;;		_main
  1815 ;; This function uses a non-reentrant model
  1816 ;;
  1817                           
  1818                           	psect	text5
  1819  001C02                     __ptext5:
  1820                           	opt stack 0
  1821  001C02                     _lcd_init:
  1822                           	opt stack 27
  1823                           
  1824                           ;lcd_x8.c: 58: unsigned char i;
  1825                           ;lcd_x8.c: 59: lcd.rw = 0;
  1826                           
  1827                           ;incstack = 0
  1828  001C02  9483               	bcf	3971,2,c
  1829                           
  1830                           ;lcd_x8.c: 62: lcd.rs = 0;
  1831  001C04  9283               	bcf	3971,1,c
  1832                           
  1833                           ;lcd_x8.c: 64: lcd.enable = 0;
  1834  001C06  9683               	bcf	3971,3,c
  1835                           
  1836                           ;lcd_x8.c: 66: delay_ms(25);
  1837  001C08  0E00               	movlw	0
  1838  001C0A  6E02               	movwf	delay_ms@n+1,c
  1839  001C0C  0E19               	movlw	25
  1840  001C0E  6E01               	movwf	delay_ms@n,c
  1841  001C10  ECEA  F010         	call	_delay_ms	;wreg free
  1842                           
  1843                           ;lcd_x8.c: 67: for (i = 1; i <= 3; ++i) {
  1844  001C14  0E01               	movlw	1
  1845  001C16  6E0B               	movwf	lcd_init@i,c
  1846  001C18                     l2481:
  1847  001C18  0E03               	movlw	3
  1848  001C1A  640B               	cpfsgt	lcd_init@i,c
  1849  001C1C  D001               	goto	l29
  1850  001C1E  D00B               	goto	u1670
  1851  001C20                     l29:
  1852                           
  1853                           ;lcd_x8.c: 68: lcd_send_nibble(3);
  1854  001C20  0E03               	movlw	3
  1855  001C22  EC21  F011         	call	_lcd_send_nibble
  1856                           
  1857                           ;lcd_x8.c: 70: delay_ms(6);
  1858  001C26  0E00               	movlw	0
  1859  001C28  6E02               	movwf	delay_ms@n+1,c
  1860  001C2A  0E06               	movlw	6
  1861  001C2C  6E01               	movwf	delay_ms@n,c
  1862  001C2E  ECEA  F010         	call	_delay_ms	;wreg free
  1863  001C32  2A0B               	incf	lcd_init@i,f,c
  1864  001C34  D7F1               	goto	l2481
  1865  001C36                     u1670:
  1866                           
  1867                           ;lcd_x8.c: 71: }
  1868                           ;lcd_x8.c: 73: lcd_send_nibble(2);
  1869  001C36  0E02               	movlw	2
  1870  001C38  EC21  F011         	call	_lcd_send_nibble
  1871                           
  1872                           ;lcd_x8.c: 75: for (i = 0; i <= 3; ++i)
  1873  001C3C  0E00               	movlw	0
  1874  001C3E  6E0B               	movwf	lcd_init@i,c
  1875  001C40                     l2495:
  1876  001C40  0E03               	movlw	3
  1877  001C42  640B               	cpfsgt	lcd_init@i,c
  1878  001C44  D001               	goto	l31
  1879  001C46  0012               	return	
  1880  001C48                     l31:
  1881                           
  1882                           ;lcd_x8.c: 76: lcd_send_byte(0, LCD_INIT_STRING[i]);
  1883  001C48  500B               	movf	lcd_init@i,w,c
  1884  001C4A  0D01               	mullw	1
  1885  001C4C  0E52               	movlw	low _LCD_INIT_STRING
  1886  001C4E  24F3               	addwf	prodl,w,c
  1887  001C50  6ED9               	movwf	fsr2l,c
  1888  001C52  0E00               	movlw	high _LCD_INIT_STRING
  1889  001C54  20F4               	addwfc	prodh,w,c
  1890  001C56  6EDA               	movwf	fsr2h,c
  1891  001C58  50DF               	movf	indf2,w,c
  1892  001C5A  6E09               	movwf	lcd_send_byte@n,c
  1893  001C5C  0E00               	movlw	0
  1894  001C5E  EC82  F00F         	call	_lcd_send_byte
  1895  001C62  2A0B               	incf	lcd_init@i,f,c
  1896  001C64  D7ED               	goto	l2495
  1897  001C66                     __end_of_lcd_init:
  1898                           	opt stack 0
  1899                           tblptru	equ	0xFF8
  1900                           tblptrh	equ	0xFF7
  1901                           tblptrl	equ	0xFF6
  1902                           tablat	equ	0xFF5
  1903                           prodh	equ	0xFF4
  1904                           prodl	equ	0xFF3
  1905                           postinc0	equ	0xFEE
  1906                           postdec1	equ	0xFE5
  1907                           fsr1l	equ	0xFE1
  1908                           indf2	equ	0xFDF
  1909                           fsr2h	equ	0xFDA
  1910                           fsr2l	equ	0xFD9
  1911                           status	equ	0xFD8
  1912                           
  1913 ;; *************** function _lcd_clear_line *****************
  1914 ;; Defined at:
  1915 ;;		line 141 in file "ourProject.c"
  1916 ;; Parameters:    Size  Location     Type
  1917 ;;  row             1    wreg     unsigned char 
  1918 ;; Auto vars:     Size  Location     Type
  1919 ;;  row             1   14[COMRAM] unsigned char 
  1920 ;;  i               1   15[COMRAM] unsigned char 
  1921 ;; Return value:  Size  Location     Type
  1922 ;;                  1    wreg      void 
  1923 ;; Registers used:
  1924 ;;		wreg, status,2, status,0, cstack
  1925 ;; Tracked objects:
  1926 ;;		On entry : 0/0
  1927 ;;		On exit  : 0/0
  1928 ;;		Unchanged: 0/0
  1929 ;; Data sizes:     COMRAM   BANK0   BANK1   BANK2   BANK3   BANK4   BANK5   BANK6   BANK7   BANK8   BANK9  BANK10  BANK1
      +1  BANK12  BANK13  BANK14  BANK15
  1930 ;;      Params:         0       0       0       0       0       0       0       0       0       0       0       0       
      +0       0       0       0       0
  1931 ;;      Locals:         2       0       0       0       0       0       0       0       0       0       0       0       
      +0       0       0       0       0
  1932 ;;      Temps:          0       0       0       0       0       0       0       0       0       0       0       0       
      +0       0       0       0       0
  1933 ;;      Totals:         2       0       0       0       0       0       0       0       0       0       0       0       
      +0       0       0       0       0
  1934 ;;Total ram usage:        2 bytes
  1935 ;; Hardware stack levels used:    1
  1936 ;; Hardware stack levels required when called:    5
  1937 ;; This function calls:
  1938 ;;		_lcd_gotoxy
  1939 ;;		_lcd_putc
  1940 ;; This function is called by:
  1941 ;;		_main
  1942 ;; This function uses a non-reentrant model
  1943 ;;
  1944                           
  1945                           	psect	text6
  1946  0020FA                     __ptext6:
  1947                           	opt stack 0
  1948  0020FA                     _lcd_clear_line:
  1949                           	opt stack 25
  1950                           
  1951                           ;incstack = 0
  1952                           ;lcd_clear_line@row stored from wreg
  1953  0020FA  6E0F               	movwf	lcd_clear_line@row,c
  1954                           
  1955                           ;ourProject.c: 142: unsigned char i;
  1956                           ;ourProject.c: 144: lcd_gotoxy(0, row);
  1957  0020FC  C00F  F00B         	movff	lcd_clear_line@row,lcd_gotoxy@y
  1958  002100  0E00               	movlw	0
  1959  002102  ECE9  F00F         	call	_lcd_gotoxy
  1960                           
  1961                           ;ourProject.c: 145: for (i = 0; i < 16; i++) {
  1962  002106  0E00               	movlw	0
  1963  002108  6E10               	movwf	lcd_clear_line@i,c
  1964  00210A                     l2567:
  1965  00210A  0E0F               	movlw	15
  1966  00210C  6410               	cpfsgt	lcd_clear_line@i,c
  1967  00210E  D001               	goto	l272
  1968  002110  D005               	goto	u1760
  1969  002112                     l272:
  1970                           
  1971                           ;ourProject.c: 146: lcd_putc(' ');
  1972  002112  0E20               	movlw	32
  1973  002114  EC89  F00E         	call	_lcd_putc
  1974  002118  2A10               	incf	lcd_clear_line@i,f,c
  1975  00211A  D7F7               	goto	l2567
  1976  00211C                     u1760:
  1977                           
  1978                           ;ourProject.c: 147: }
  1979                           ;ourProject.c: 148: lcd_gotoxy(0, row);
  1980  00211C  C00F  F00B         	movff	lcd_clear_line@row,lcd_gotoxy@y
  1981  002120  0E00               	movlw	0
  1982  002122  ECE9  F00F         	call	_lcd_gotoxy
  1983  002126  0012               	return		;funcret
  1984  002128                     __end_of_lcd_clear_line:
  1985                           	opt stack 0
  1986                           tblptru	equ	0xFF8
  1987                           tblptrh	equ	0xFF7
  1988                           tblptrl	equ	0xFF6
  1989                           tablat	equ	0xFF5
  1990                           prodh	equ	0xFF4
  1991                           prodl	equ	0xFF3
  1992                           postinc0	equ	0xFEE
  1993                           postdec1	equ	0xFE5
  1994                           fsr1l	equ	0xFE1
  1995                           indf2	equ	0xFDF
  1996                           fsr2h	equ	0xFDA
  1997                           fsr2l	equ	0xFD9
  1998                           status	equ	0xFD8
  1999                           
  2000 ;; *************** function _is_byte_available *****************
  2001 ;; Defined at:
  2002 ;;		line 21 in file "my_ser.c"
  2003 ;; Parameters:    Size  Location     Type
  2004 ;;		None
  2005 ;; Auto vars:     Size  Location     Type
  2006 ;;		None
  2007 ;; Return value:  Size  Location     Type
  2008 ;;                  1    wreg      unsigned char 
  2009 ;; Registers used:
  2010 ;;		wreg
  2011 ;; Tracked objects:
  2012 ;;		On entry : 0/0
  2013 ;;		On exit  : 0/0
  2014 ;;		Unchanged: 0/0
  2015 ;; Data sizes:     COMRAM   BANK0   BANK1   BANK2   BANK3   BANK4   BANK5   BANK6   BANK7   BANK8   BANK9  BANK10  BANK1
      +1  BANK12  BANK13  BANK14  BANK15
  2016 ;;      Params:         0       0       0       0       0       0       0       0       0       0       0       0       
      +0       0       0       0       0
  2017 ;;      Locals:         0       0       0       0       0       0       0       0       0       0       0       0       
      +0       0       0       0       0
  2018 ;;      Temps:          0       0       0       0       0       0       0       0       0       0       0       0       
      +0       0       0       0       0
  2019 ;;      Totals:         0       0       0       0       0       0       0       0       0       0       0       0       
      +0       0       0       0       0
  2020 ;;Total ram usage:        0 bytes
  2021 ;; Hardware stack levels used:    1
  2022 ;; This function calls:
  2023 ;;		Nothing
  2024 ;; This function is called by:
  2025 ;;		_main
  2026 ;; This function uses a non-reentrant model
  2027 ;;
  2028                           
  2029                           	psect	text7
  2030  0022DC                     __ptext7:
  2031                           	opt stack 0
  2032  0022DC                     _is_byte_available:
  2033                           	opt stack 30
  2034                           
  2035                           ;my_ser.c: 23: if (RCSTAbits.FERR || RCSTAbits.OERR)
  2036                           
  2037                           ;incstack = 0
  2038  0022DC  B4AB               	btfsc	4011,2,c	;volatile
  2039  0022DE  D002               	goto	u1710
  2040  0022E0  A2AB               	btfss	4011,1,c	;volatile
  2041  0022E2  D002               	goto	l140
  2042  0022E4                     u1710:
  2043                           
  2044                           ;my_ser.c: 24: {
  2045                           ;my_ser.c: 25: RCSTAbits.CREN = 0;
  2046  0022E4  98AB               	bcf	4011,4,c	;volatile
  2047                           
  2048                           ;my_ser.c: 26: RCSTAbits.CREN = 1;
  2049  0022E6  88AB               	bsf	4011,4,c	;volatile
  2050  0022E8                     l140:
  2051                           
  2052                           ;my_ser.c: 27: }
  2053                           ;my_ser.c: 29: if (PIR1bits.RCIF) return 1;
  2054  0022E8  AA9E               	btfss	3998,5,c	;volatile
  2055  0022EA  D002               	goto	l143
  2056  0022EC  0E01               	movlw	1
  2057  0022EE  0012               	return	
  2058  0022F0                     l143:
  2059                           
  2060                           ;my_ser.c: 30: else return 0;
  2061  0022F0  0E00               	movlw	0
  2062  0022F2  0012               	return	
  2063  0022F4                     __end_of_is_byte_available:
  2064                           	opt stack 0
  2065                           tblptru	equ	0xFF8
  2066                           tblptrh	equ	0xFF7
  2067                           tblptrl	equ	0xFF6
  2068                           tablat	equ	0xFF5
  2069                           prodh	equ	0xFF4
  2070                           prodl	equ	0xFF3
  2071                           postinc0	equ	0xFEE
  2072                           postdec1	equ	0xFE5
  2073                           fsr1l	equ	0xFE1
  2074                           indf2	equ	0xFDF
  2075                           fsr2h	equ	0xFDA
  2076                           fsr2l	equ	0xFD9
  2077                           status	equ	0xFD8
  2078                           
  2079 ;; *************** function _initTimer1 *****************
  2080 ;; Defined at:
  2081 ;;		line 284 in file "ourProject.c"
  2082 ;; Parameters:    Size  Location     Type
  2083 ;;		None
  2084 ;; Auto vars:     Size  Location     Type
  2085 ;;		None
  2086 ;; Return value:  Size  Location     Type
  2087 ;;                  1    wreg      void 
  2088 ;; Registers used:
  2089 ;;		wreg, status,2
  2090 ;; Tracked objects:
  2091 ;;		On entry : 0/0
  2092 ;;		On exit  : 0/0
  2093 ;;		Unchanged: 0/0
  2094 ;; Data sizes:     COMRAM   BANK0   BANK1   BANK2   BANK3   BANK4   BANK5   BANK6   BANK7   BANK8   BANK9  BANK10  BANK1
      +1  BANK12  BANK13  BANK14  BANK15
  2095 ;;      Params:         0       0       0       0       0       0       0       0       0       0       0       0       
      +0       0       0       0       0
  2096 ;;      Locals:         0       0       0       0       0       0       0       0       0       0       0       0       
      +0       0       0       0       0
  2097 ;;      Temps:          0       0       0       0       0       0       0       0       0       0       0       0       
      +0       0       0       0       0
  2098 ;;      Totals:         0       0       0       0       0       0       0       0       0       0       0       0       
      +0       0       0       0       0
  2099 ;;Total ram usage:        0 bytes
  2100 ;; Hardware stack levels used:    1
  2101 ;; This function calls:
  2102 ;;		Nothing
  2103 ;; This function is called by:
  2104 ;;		_main
  2105 ;; This function uses a non-reentrant model
  2106 ;;
  2107                           
  2108                           	psect	text8
  2109  00231E                     __ptext8:
  2110                           	opt stack 0
  2111  00231E                     _initTimer1:
  2112                           	opt stack 30
  2113                           
  2114                           ;ourProject.c: 285: T1CON = 0x80;
  2115                           
  2116                           ;incstack = 0
  2117  00231E  0E80               	movlw	128
  2118  002320  6ECD               	movwf	4045,c	;volatile
  2119                           
  2120                           ;ourProject.c: 286: PIR1bits.TMR1IF = 0;
  2121  002322  909E               	bcf	3998,0,c	;volatile
  2122                           
  2123                           ;ourProject.c: 287: TMR1H = 0;
  2124  002324  0E00               	movlw	0
  2125  002326  6ECF               	movwf	4047,c	;volatile
  2126                           
  2127                           ;ourProject.c: 288: TMR1L = 0;
  2128  002328  0E00               	movlw	0
  2129  00232A  6ECE               	movwf	4046,c	;volatile
  2130  00232C  0012               	return		;funcret
  2131  00232E                     __end_of_initTimer1:
  2132                           	opt stack 0
  2133                           tblptru	equ	0xFF8
  2134                           tblptrh	equ	0xFF7
  2135                           tblptrl	equ	0xFF6
  2136                           tablat	equ	0xFF5
  2137                           prodh	equ	0xFF4
  2138                           prodl	equ	0xFF3
  2139                           postinc0	equ	0xFEE
  2140                           postdec1	equ	0xFE5
  2141                           fsr1l	equ	0xFE1
  2142                           indf2	equ	0xFDF
  2143                           fsr2h	equ	0xFDA
  2144                           fsr2l	equ	0xFD9
  2145                           status	equ	0xFD8
  2146                           
  2147 ;; *************** function _initPorts *****************
  2148 ;; Defined at:
  2149 ;;		line 618 in file "ourProject.c"
  2150 ;; Parameters:    Size  Location     Type
  2151 ;;		None
  2152 ;; Auto vars:     Size  Location     Type
  2153 ;;		None
  2154 ;; Return value:  Size  Location     Type
  2155 ;;                  1    wreg      void 
  2156 ;; Registers used:
  2157 ;;		wreg, status,2
  2158 ;; Tracked objects:
  2159 ;;		On entry : 0/0
  2160 ;;		On exit  : 0/0
  2161 ;;		Unchanged: 0/0
  2162 ;; Data sizes:     COMRAM   BANK0   BANK1   BANK2   BANK3   BANK4   BANK5   BANK6   BANK7   BANK8   BANK9  BANK10  BANK1
      +1  BANK12  BANK13  BANK14  BANK15
  2163 ;;      Params:         0       0       0       0       0       0       0       0       0       0       0       0       
      +0       0       0       0       0
  2164 ;;      Locals:         0       0       0       0       0       0       0       0       0       0       0       0       
      +0       0       0       0       0
  2165 ;;      Temps:          0       0       0       0       0       0       0       0       0       0       0       0       
      +0       0       0       0       0
  2166 ;;      Totals:         0       0       0       0       0       0       0       0       0       0       0       0       
      +0       0       0       0       0
  2167 ;;Total ram usage:        0 bytes
  2168 ;; Hardware stack levels used:    1
  2169 ;; This function calls:
  2170 ;;		Nothing
  2171 ;; This function is called by:
  2172 ;;		_main
  2173 ;; This function uses a non-reentrant model
  2174 ;;
  2175                           
  2176                           	psect	text9
  2177  001F4C                     __ptext9:
  2178                           	opt stack 0
  2179  001F4C                     _initPorts:
  2180                           	opt stack 30
  2181                           
  2182                           ;ourProject.c: 620: INTCON = 0;
  2183                           
  2184                           ;incstack = 0
  2185  001F4C  0E00               	movlw	0
  2186  001F4E  6EF2               	movwf	intcon,c	;volatile
  2187                           
  2188                           ;ourProject.c: 621: INTCON2 = 0;
  2189  001F50  0E00               	movlw	0
  2190  001F52  6EF1               	movwf	intcon2,c	;volatile
  2191                           
  2192                           ;ourProject.c: 623: CMCON = 0x07;
  2193  001F54  0E07               	movlw	7
  2194  001F56  6EB4               	movwf	4020,c	;volatile
  2195                           
  2196                           ;ourProject.c: 624: CVRCON = 0x00;
  2197  001F58  0E00               	movlw	0
  2198  001F5A  6EB5               	movwf	4021,c	;volatile
  2199                           
  2200                           ;ourProject.c: 625: ADCON1 = 0x0D;
  2201  001F5C  0E0D               	movlw	13
  2202  001F5E  6EC1               	movwf	4033,c	;volatile
  2203                           
  2204                           ;ourProject.c: 626: LATA = LATB = LATC = LATD = LATE = 0;
  2205  001F60  0E00               	movlw	0
  2206  001F62  6E8D               	movwf	3981,c	;volatile
  2207  001F64  CF8D FF8C          	movff	3981,3980	;volatile
  2208  001F68  CF8C FF8B          	movff	3980,3979	;volatile
  2209  001F6C  CF8B FF8A          	movff	3979,3978	;volatile
  2210  001F70  CF8A FF89          	movff	3978,3977	;volatile
  2211                           
  2212                           ;ourProject.c: 627: TRISA = 0xFF;
  2213  001F74  6892               	setf	3986,c	;volatile
  2214                           
  2215                           ;ourProject.c: 628: TRISB = 0xFB;
  2216  001F76  0EFB               	movlw	251
  2217  001F78  6E93               	movwf	3987,c	;volatile
  2218                           
  2219                           ;ourProject.c: 629: TRISD = TRISE = 0;
  2220  001F7A  0E00               	movlw	0
  2221  001F7C  6E96               	movwf	3990,c	;volatile
  2222  001F7E  CF96 FF95          	movff	3990,3989	;volatile
  2223                           
  2224                           ;ourProject.c: 630: TRISC = 0x88;
  2225  001F82  0E88               	movlw	136
  2226  001F84  6E94               	movwf	3988,c	;volatile
  2227                           
  2228                           ;ourProject.c: 631: LATCbits.LATC0 = 0;
  2229  001F86  908B               	bcf	3979,0,c	;volatile
  2230                           
  2231                           ;ourProject.c: 632: LATCbits.LATC1 = 0;
  2232  001F88  928B               	bcf	3979,1,c	;volatile
  2233                           
  2234                           ;ourProject.c: 633: LATBbits.LATB2 = 0;
  2235  001F8A  948A               	bcf	3978,2,c	;volatile
  2236                           
  2237                           ;ourProject.c: 634: LATCbits.LATC2 = 0;
  2238  001F8C  948B               	bcf	3979,2,c	;volatile
  2239  001F8E  0012               	return		;funcret
  2240  001F90                     __end_of_initPorts:
  2241                           	opt stack 0
  2242                           tblptru	equ	0xFF8
  2243                           tblptrh	equ	0xFF7
  2244                           tblptrl	equ	0xFF6
  2245                           tablat	equ	0xFF5
  2246                           prodh	equ	0xFF4
  2247                           prodl	equ	0xFF3
  2248                           intcon	equ	0xFF2
  2249                           intcon2	equ	0xFF1
  2250                           postinc0	equ	0xFEE
  2251                           postdec1	equ	0xFE5
  2252                           fsr1l	equ	0xFE1
  2253                           indf2	equ	0xFDF
  2254                           fsr2h	equ	0xFDA
  2255                           fsr2l	equ	0xFD9
  2256                           status	equ	0xFD8
  2257                           
  2258 ;; *************** function _initADC *****************
  2259 ;; Defined at:
  2260 ;;		line 3 in file "my_adc.c"
  2261 ;; Parameters:    Size  Location     Type
  2262 ;;		None
  2263 ;; Auto vars:     Size  Location     Type
  2264 ;;		None
  2265 ;; Return value:  Size  Location     Type
  2266 ;;                  1    wreg      void 
  2267 ;; Registers used:
  2268 ;;		wreg, status,2
  2269 ;; Tracked objects:
  2270 ;;		On entry : 0/0
  2271 ;;		On exit  : 0/0
  2272 ;;		Unchanged: 0/0
  2273 ;; Data sizes:     COMRAM   BANK0   BANK1   BANK2   BANK3   BANK4   BANK5   BANK6   BANK7   BANK8   BANK9  BANK10  BANK1
      +1  BANK12  BANK13  BANK14  BANK15
  2274 ;;      Params:         0       0       0       0       0       0       0       0       0       0       0       0       
      +0       0       0       0       0
  2275 ;;      Locals:         0       0       0       0       0       0       0       0       0       0       0       0       
      +0       0       0       0       0
  2276 ;;      Temps:          0       0       0       0       0       0       0       0       0       0       0       0       
      +0       0       0       0       0
  2277 ;;      Totals:         0       0       0       0       0       0       0       0       0       0       0       0       
      +0       0       0       0       0
  2278 ;;Total ram usage:        0 bytes
  2279 ;; Hardware stack levels used:    1
  2280 ;; This function calls:
  2281 ;;		Nothing
  2282 ;; This function is called by:
  2283 ;;		_main
  2284 ;; This function uses a non-reentrant model
  2285 ;;
  2286                           
  2287                           	psect	text10
  2288  002284                     __ptext10:
  2289                           	opt stack 0
  2290  002284                     _initADC:
  2291                           	opt stack 30
  2292                           
  2293                           ;my_adc.c: 4: ADCON0 = 0;
  2294                           
  2295                           ;incstack = 0
  2296  002284  0E00               	movlw	0
  2297  002286  6EC2               	movwf	4034,c	;volatile
  2298                           
  2299                           ;my_adc.c: 5: ADCON0bits.ADON = 1;
  2300  002288  80C2               	bsf	4034,0,c	;volatile
  2301                           
  2302                           ;my_adc.c: 7: ADCON2 = 0;
  2303  00228A  0E00               	movlw	0
  2304  00228C  6EC0               	movwf	4032,c	;volatile
  2305                           
  2306                           ;my_adc.c: 8: ADCON2bits.ADFM = 1;
  2307  00228E  8EC0               	bsf	4032,7,c	;volatile
  2308                           
  2309                           ;my_adc.c: 9: ADCON2bits.ADCS = 1;
  2310  002290  50C0               	movf	4032,w,c	;volatile
  2311  002292  0BF8               	andlw	-8
  2312  002294  0901               	iorlw	1
  2313  002296  6EC0               	movwf	4032,c	;volatile
  2314                           
  2315                           ;my_adc.c: 10: ADCON2bits.ACQT = 1;
  2316  002298  50C0               	movf	4032,w,c	;volatile
  2317  00229A  0BC7               	andlw	-57
  2318  00229C  0908               	iorlw	8
  2319  00229E  6EC0               	movwf	4032,c	;volatile
  2320  0022A0  0012               	return		;funcret
  2321  0022A2                     __end_of_initADC:
  2322                           	opt stack 0
  2323                           tblptru	equ	0xFF8
  2324                           tblptrh	equ	0xFF7
  2325                           tblptrl	equ	0xFF6
  2326                           tablat	equ	0xFF5
  2327                           prodh	equ	0xFF4
  2328                           prodl	equ	0xFF3
  2329                           intcon	equ	0xFF2
  2330                           intcon2	equ	0xFF1
  2331                           postinc0	equ	0xFEE
  2332                           postdec1	equ	0xFE5
  2333                           fsr1l	equ	0xFE1
  2334                           indf2	equ	0xFDF
  2335                           fsr2h	equ	0xFDA
  2336                           fsr2l	equ	0xFD9
  2337                           status	equ	0xFD8
  2338                           
  2339 ;; *************** function _execute_part2_radar *****************
  2340 ;; Defined at:
  2341 ;;		line 569 in file "ourProject.c"
  2342 ;; Parameters:    Size  Location     Type
  2343 ;;		None
  2344 ;; Auto vars:     Size  Location     Type
  2345 ;;  SerialBuffer   24   37[COMRAM] unsigned char [24]
  2346 ;;  Buffer         17   61[COMRAM] unsigned char [17]
  2347 ;;  distance_cm     2   78[COMRAM] unsigned int 
  2348 ;;  angle_now       1   80[COMRAM] unsigned char 
  2349 ;; Return value:  Size  Location     Type
  2350 ;;                  1    wreg      void 
  2351 ;; Registers used:
  2352 ;;		wreg, fsr0l, fsr0h, fsr1l, fsr1h, fsr2l, fsr2h, status,2, status,0, tblptrl, tblptrh, tblptru, prodl, prodh, cstack
  2353 ;; Tracked objects:
  2354 ;;		On entry : 0/0
  2355 ;;		On exit  : 0/0
  2356 ;;		Unchanged: 0/0
  2357 ;; Data sizes:     COMRAM   BANK0   BANK1   BANK2   BANK3   BANK4   BANK5   BANK6   BANK7   BANK8   BANK9  BANK10  BANK1
      +1  BANK12  BANK13  BANK14  BANK15
  2358 ;;      Params:         0       0       0       0       0       0       0       0       0       0       0       0       
      +0       0       0       0       0
  2359 ;;      Locals:        44       0       0       0       0       0       0       0       0       0       0       0       
      +0       0       0       0       0
  2360 ;;      Temps:          0       0       0       0       0       0       0       0       0       0       0       0       
      +0       0       0       0       0
  2361 ;;      Totals:        44       0       0       0       0       0       0       0       0       0       0       0       
      +0       0       0       0       0
  2362 ;;Total ram usage:       44 bytes
  2363 ;; Hardware stack levels used:    1
  2364 ;; Hardware stack levels required when called:    6
  2365 ;; This function calls:
  2366 ;;		_buzzer_beep
  2367 ;;		_delay_ms_var
  2368 ;;		_hcsr04_read_filtered
  2369 ;;		_lcd_gotoxy
  2370 ;;		_lcd_puts
  2371 ;;		_radar_next_angle
  2372 ;;		_send_string_no_lib
  2373 ;;		_servo_set_angle
  2374 ;;		_sprintf
  2375 ;; This function is called by:
  2376 ;;		_main
  2377 ;; This function uses a non-reentrant model
  2378 ;;
  2379                           
  2380                           	psect	text11
  2381  001764                     __ptext11:
  2382                           	opt stack 0
  2383  001764                     _execute_part2_radar:
  2384                           	opt stack 24
  2385                           
  2386                           ;ourProject.c: 570: char Buffer[17];
  2387                           ;ourProject.c: 571: char SerialBuffer[24];
  2388                           ;ourProject.c: 572: unsigned int distance_cm;
  2389                           ;ourProject.c: 573: unsigned char angle_now;
  2390                           ;ourProject.c: 575: angle_now = ServoAngle;
  2391                           
  2392                           ;incstack = 0
  2393  001764  C0B7  F051         	movff	_ServoAngle,execute_part2_radar@angle_now
  2394                           
  2395                           ;ourProject.c: 576: sprintf(SerialBuffer, "M,%u,%u\r\n", angle_now, (unsigned int)(8U * 
      +                          (20000U / 1000U)));
  2396  001768  0E26               	movlw	low execute_part2_radar@SerialBuffer
  2397  00176A  6E0D               	movwf	sprintf@sp,c
  2398  00176C  0E00               	movlw	high execute_part2_radar@SerialBuffer
  2399  00176E  6E0E               	movwf	sprintf@sp+1,c
  2400  001770  0E7C               	movlw	low STR_3
  2401  001772  6E0F               	movwf	sprintf@f,c
  2402  001774  0E10               	movlw	high STR_3
  2403  001776  6E10               	movwf	sprintf@f+1,c
  2404  001778  C051  F011         	movff	execute_part2_radar@angle_now,?_sprintf+4
  2405  00177C  6A12               	clrf	?_sprintf+5,c
  2406  00177E  0E00               	movlw	0
  2407  001780  6E14               	movwf	?_sprintf+7,c
  2408  001782  0EA0               	movlw	160
  2409  001784  6E13               	movwf	?_sprintf+6,c
  2410  001786  ECCF  F009         	call	_sprintf	;wreg free
  2411                           
  2412                           ;ourProject.c: 577: send_string_no_lib(SerialBuffer);
  2413  00178A  0E26               	movlw	low execute_part2_radar@SerialBuffer
  2414  00178C  6E02               	movwf	send_string_no_lib@p,c
  2415  00178E  0E00               	movlw	high execute_part2_radar@SerialBuffer
  2416  001790  6E03               	movwf	send_string_no_lib@p+1,c
  2417  001792  EC0F  F011         	call	_send_string_no_lib	;wreg free
  2418                           
  2419                           ;ourProject.c: 579: servo_set_angle(angle_now);
  2420  001796  5051               	movf	execute_part2_radar@angle_now,w,c
  2421  001798  ECAB  F010         	call	_servo_set_angle
  2422                           
  2423                           ;ourProject.c: 580: delay_ms_var(70U);
  2424  00179C  0E00               	movlw	0
  2425  00179E  6E02               	movwf	delay_ms_var@ms+1,c
  2426  0017A0  0E46               	movlw	70
  2427  0017A2  6E01               	movwf	delay_ms_var@ms,c
  2428  0017A4  EC60  F011         	call	_delay_ms_var	;wreg free
  2429                           
  2430                           ;ourProject.c: 582: lcd_gotoxy(0, 0);
  2431  0017A8  0E00               	movlw	0
  2432  0017AA  6E0B               	movwf	lcd_gotoxy@y,c
  2433  0017AC  0E00               	movlw	0
  2434  0017AE  ECE9  F00F         	call	_lcd_gotoxy
  2435                           
  2436                           ;ourProject.c: 583: if(hcsr04_read_filtered(&distance_cm)) {
  2437  0017B2  0E4F               	movlw	low execute_part2_radar@distance_cm
  2438  0017B4  6E0F               	movwf	hcsr04_read_filtered@distance_cm,c
  2439  0017B6  0E00               	movlw	high execute_part2_radar@distance_cm
  2440  0017B8  6E10               	movwf	hcsr04_read_filtered@distance_cm+1,c
  2441  0017BA  ECC8  F00A         	call	_hcsr04_read_filtered	;wreg free
  2442  0017BE  0900               	iorlw	0
  2443  0017C0  B4D8               	btfsc	status,2,c
  2444  0017C2  D058               	goto	l413
  2445                           
  2446                           ;ourProject.c: 584: sprintf(Buffer, "A:%3u D:%3u cm  ", angle_now, distance_cm);
  2447  0017C4  0E3E               	movlw	low execute_part2_radar@Buffer
  2448  0017C6  6E0D               	movwf	sprintf@sp,c
  2449  0017C8  0E00               	movlw	high execute_part2_radar@Buffer
  2450  0017CA  6E0E               	movwf	sprintf@sp+1,c
  2451  0017CC  0E5F               	movlw	low STR_4
  2452  0017CE  6E0F               	movwf	sprintf@f,c
  2453  0017D0  0E10               	movlw	high STR_4
  2454  0017D2  6E10               	movwf	sprintf@f+1,c
  2455  0017D4  C051  F011         	movff	execute_part2_radar@angle_now,?_sprintf+4
  2456  0017D8  6A12               	clrf	?_sprintf+5,c
  2457  0017DA  C04F  F013         	movff	execute_part2_radar@distance_cm,?_sprintf+6
  2458  0017DE  C050  F014         	movff	execute_part2_radar@distance_cm+1,?_sprintf+7
  2459  0017E2  ECCF  F009         	call	_sprintf	;wreg free
  2460                           
  2461                           ;ourProject.c: 585: lcd_puts(Buffer);
  2462  0017E6  0E3E               	movlw	low execute_part2_radar@Buffer
  2463  0017E8  6E0F               	movwf	lcd_puts@s,c
  2464  0017EA  0E00               	movlw	high execute_part2_radar@Buffer
  2465  0017EC  6E10               	movwf	lcd_puts@s+1,c
  2466  0017EE  EC5E  F00E         	call	_lcd_puts	;wreg free
  2467                           
  2468                           ;ourProject.c: 586: sprintf(SerialBuffer, "%u,%u\r\n", angle_now, distance_cm);
  2469  0017F2  0E26               	movlw	low execute_part2_radar@SerialBuffer
  2470  0017F4  6E0D               	movwf	sprintf@sp,c
  2471  0017F6  0E00               	movlw	high execute_part2_radar@SerialBuffer
  2472  0017F8  6E0E               	movwf	sprintf@sp+1,c
  2473  0017FA  0E7E               	movlw	low (STR_3+2)
  2474  0017FC  6E0F               	movwf	sprintf@f,c
  2475  0017FE  0E10               	movlw	high (STR_3+2)
  2476  001800  6E10               	movwf	sprintf@f+1,c
  2477  001802  C051  F011         	movff	execute_part2_radar@angle_now,?_sprintf+4
  2478  001806  6A12               	clrf	?_sprintf+5,c
  2479  001808  C04F  F013         	movff	execute_part2_radar@distance_cm,?_sprintf+6
  2480  00180C  C050  F014         	movff	execute_part2_radar@distance_cm+1,?_sprintf+7
  2481  001810  ECCF  F009         	call	_sprintf	;wreg free
  2482                           
  2483                           ;ourProject.c: 587: send_string_no_lib(SerialBuffer);
  2484  001814  0E26               	movlw	low execute_part2_radar@SerialBuffer
  2485  001816  6E02               	movwf	send_string_no_lib@p,c
  2486  001818  0E00               	movlw	high execute_part2_radar@SerialBuffer
  2487  00181A  6E03               	movwf	send_string_no_lib@p+1,c
  2488  00181C  EC0F  F011         	call	_send_string_no_lib	;wreg free
  2489                           
  2490                           ;ourProject.c: 589: if(distance_cm <= 10U) {
  2491  001820  5050               	movf	execute_part2_radar@distance_cm+1,w,c
  2492  001822  E11A               	bnz	l414
  2493  001824  0E0B               	movlw	11
  2494  001826  5C4F               	subwf	execute_part2_radar@distance_cm,w,c
  2495  001828  B0D8               	btfsc	status,0,c
  2496  00182A  D016               	goto	l414
  2497                           
  2498                           ;ourProject.c: 590: LATBbits.LATB2 = 1;
  2499  00182C  848A               	bsf	3978,2,c	;volatile
  2500                           
  2501                           ;ourProject.c: 591: lcd_gotoxy(0, 1);
  2502  00182E  0E01               	movlw	1
  2503  001830  6E0B               	movwf	lcd_gotoxy@y,c
  2504  001832  0E00               	movlw	0
  2505  001834  ECE9  F00F         	call	_lcd_gotoxy
  2506                           
  2507                           ;ourProject.c: 592: lcd_puts("Near Alert      ");
  2508  001838  0E2C               	movlw	low STR_6
  2509  00183A  6E0F               	movwf	lcd_puts@s,c
  2510  00183C  0E10               	movlw	high STR_6
  2511  00183E  6E10               	movwf	lcd_puts@s+1,c
  2512  001840  EC5E  F00E         	call	_lcd_puts	;wreg free
  2513                           
  2514                           ;ourProject.c: 593: buzzer_beep(80U);
  2515  001844  0E50               	movlw	80
  2516  001846  ECC1  F010         	call	_buzzer_beep
  2517                           
  2518                           ;ourProject.c: 594: delay_ms_var(120);
  2519  00184A  0E00               	movlw	0
  2520  00184C  6E02               	movwf	delay_ms_var@ms+1,c
  2521  00184E  0E78               	movlw	120
  2522  001850  6E01               	movwf	delay_ms_var@ms,c
  2523  001852  EC60  F011         	call	_delay_ms_var	;wreg free
  2524                           
  2525                           ;ourProject.c: 595: }
  2526  001856  D041               	goto	l416
  2527  001858                     l414:
  2528                           
  2529                           ;ourProject.c: 596: else {
  2530                           ;ourProject.c: 597: LATBbits.LATB2 = 0;
  2531  001858  948A               	bcf	3978,2,c	;volatile
  2532                           
  2533                           ;ourProject.c: 598: LATCbits.LATC2 = 0;
  2534  00185A  948B               	bcf	3979,2,c	;volatile
  2535                           
  2536                           ;ourProject.c: 599: lcd_gotoxy(0, 1);
  2537  00185C  0E01               	movlw	1
  2538  00185E  6E0B               	movwf	lcd_gotoxy@y,c
  2539  001860  0E00               	movlw	0
  2540  001862  ECE9  F00F         	call	_lcd_gotoxy
  2541                           
  2542                           ;ourProject.c: 600: lcd_puts("Radar Sweep     ");
  2543  001866  0E4E               	movlw	low STR_7
  2544  001868  6E0F               	movwf	lcd_puts@s,c
  2545  00186A  0E10               	movlw	high STR_7
  2546  00186C  6E10               	movwf	lcd_puts@s+1,c
  2547  00186E  EC5E  F00E         	call	_lcd_puts	;wreg free
  2548                           
  2549                           ;ourProject.c: 601: }
  2550                           ;ourProject.c: 602: }
  2551  001872  D033               	goto	l416
  2552  001874                     l413:
  2553                           
  2554                           ;ourProject.c: 603: else {
  2555                           ;ourProject.c: 604: LATBbits.LATB2 = 0;
  2556  001874  948A               	bcf	3978,2,c	;volatile
  2557                           
  2558                           ;ourProject.c: 605: LATCbits.LATC2 = 0;
  2559  001876  948B               	bcf	3979,2,c	;volatile
  2560                           
  2561                           ;ourProject.c: 606: sprintf(Buffer, "A:%3u D:---     ", angle_now);
  2562  001878  0E3E               	movlw	low execute_part2_radar@Buffer
  2563  00187A  6E0D               	movwf	sprintf@sp,c
  2564  00187C  0E00               	movlw	high execute_part2_radar@Buffer
  2565  00187E  6E0E               	movwf	sprintf@sp+1,c
  2566  001880  0E3D               	movlw	low STR_8
  2567  001882  6E0F               	movwf	sprintf@f,c
  2568  001884  0E10               	movlw	high STR_8
  2569  001886  6E10               	movwf	sprintf@f+1,c
  2570  001888  C051  F011         	movff	execute_part2_radar@angle_now,?_sprintf+4
  2571  00188C  6A12               	clrf	?_sprintf+5,c
  2572  00188E  ECCF  F009         	call	_sprintf	;wreg free
  2573                           
  2574                           ;ourProject.c: 607: lcd_puts(Buffer);
  2575  001892  0E3E               	movlw	low execute_part2_radar@Buffer
  2576  001894  6E0F               	movwf	lcd_puts@s,c
  2577  001896  0E00               	movlw	high execute_part2_radar@Buffer
  2578  001898  6E10               	movwf	lcd_puts@s+1,c
  2579  00189A  EC5E  F00E         	call	_lcd_puts	;wreg free
  2580                           
  2581                           ;ourProject.c: 608: sprintf(SerialBuffer, "%u,0\r\n", angle_now);
  2582  00189E  0E26               	movlw	low execute_part2_radar@SerialBuffer
  2583  0018A0  6E0D               	movwf	sprintf@sp,c
  2584  0018A2  0E00               	movlw	high execute_part2_radar@SerialBuffer
  2585  0018A4  6E0E               	movwf	sprintf@sp+1,c
  2586  0018A6  0E86               	movlw	low STR_9
  2587  0018A8  6E0F               	movwf	sprintf@f,c
  2588  0018AA  0E10               	movlw	high STR_9
  2589  0018AC  6E10               	movwf	sprintf@f+1,c
  2590  0018AE  C051  F011         	movff	execute_part2_radar@angle_now,?_sprintf+4
  2591  0018B2  6A12               	clrf	?_sprintf+5,c
  2592  0018B4  ECCF  F009         	call	_sprintf	;wreg free
  2593                           
  2594                           ;ourProject.c: 609: send_string_no_lib(SerialBuffer);
  2595  0018B8  0E26               	movlw	low execute_part2_radar@SerialBuffer
  2596  0018BA  6E02               	movwf	send_string_no_lib@p,c
  2597  0018BC  0E00               	movlw	high execute_part2_radar@SerialBuffer
  2598  0018BE  6E03               	movwf	send_string_no_lib@p+1,c
  2599  0018C0  EC0F  F011         	call	_send_string_no_lib	;wreg free
  2600                           
  2601                           ;ourProject.c: 610: lcd_gotoxy(0, 1);
  2602  0018C4  0E01               	movlw	1
  2603  0018C6  6E0B               	movwf	lcd_gotoxy@y,c
  2604  0018C8  0E00               	movlw	0
  2605  0018CA  ECE9  F00F         	call	_lcd_gotoxy
  2606                           
  2607                           ;ourProject.c: 611: lcd_puts("Radar Sweep     ");
  2608  0018CE  0E4E               	movlw	low STR_7
  2609  0018D0  6E0F               	movwf	lcd_puts@s,c
  2610  0018D2  0E10               	movlw	high STR_7
  2611  0018D4  6E10               	movwf	lcd_puts@s+1,c
  2612  0018D6  EC5E  F00E         	call	_lcd_puts	;wreg free
  2613  0018DA                     l416:
  2614                           
  2615                           ;ourProject.c: 612: }
  2616                           ;ourProject.c: 614: radar_next_angle();
  2617  0018DA  EC48  F010         	call	_radar_next_angle	;wreg free
  2618  0018DE  0012               	return		;funcret
  2619  0018E0                     __end_of_execute_part2_radar:
  2620                           	opt stack 0
  2621                           tblptru	equ	0xFF8
  2622                           tblptrh	equ	0xFF7
  2623                           tblptrl	equ	0xFF6
  2624                           tablat	equ	0xFF5
  2625                           prodh	equ	0xFF4
  2626                           prodl	equ	0xFF3
  2627                           intcon	equ	0xFF2
  2628                           intcon2	equ	0xFF1
  2629                           postinc0	equ	0xFEE
  2630                           postdec1	equ	0xFE5
  2631                           fsr1l	equ	0xFE1
  2632                           indf2	equ	0xFDF
  2633                           fsr2h	equ	0xFDA
  2634                           fsr2l	equ	0xFD9
  2635                           status	equ	0xFD8
  2636                           
  2637 ;; *************** function _sprintf *****************
  2638 ;; Defined at:
  2639 ;;		line 492 in file "C:\Program Files (x86)\Microchip\xc8\v1.45\sources\common\doprnt.c"
  2640 ;; Parameters:    Size  Location     Type
  2641 ;;  sp              2   12[COMRAM] PTR unsigned char 
  2642 ;;		 -> execute_part2_radar@Buffer(17), execute_part2_radar@SerialBuffer(24), main@Buffer(32), 
  2643 ;;  f               2   14[COMRAM] PTR const unsigned char 
  2644 ;;		 -> STR_9(7), STR_8(17), STR_5(8), STR_4(17), 
  2645 ;;		 -> STR_3(10), STR_2(20), 
  2646 ;; Auto vars:     Size  Location     Type
  2647 ;;  tmpval          4    0        struct .
  2648 ;;  cp              3    0        PTR const unsigned char 
  2649 ;;  width           2   34[COMRAM] int 
  2650 ;;  val             2   31[COMRAM] unsigned int 
  2651 ;;  ap              2   29[COMRAM] PTR void [1]
  2652 ;;		 -> ?_sprintf(2), 
  2653 ;;  len             2    0        unsigned int 
  2654 ;;  c               1   36[COMRAM] char 
  2655 ;;  prec            1   33[COMRAM] char 
  2656 ;;  flag            1   28[COMRAM] unsigned char 
  2657 ;; Return value:  Size  Location     Type
  2658 ;;                  2   12[COMRAM] int 
  2659 ;; Registers used:
  2660 ;;		wreg, fsr2l, fsr2h, status,2, status,0, tblptrl, tblptrh, tblptru, prodl, prodh, cstack
  2661 ;; Tracked objects:
  2662 ;;		On entry : 0/0
  2663 ;;		On exit  : 0/0
  2664 ;;		Unchanged: 0/0
  2665 ;; Data sizes:     COMRAM   BANK0   BANK1   BANK2   BANK3   BANK4   BANK5   BANK6   BANK7   BANK8   BANK9  BANK10  BANK1
      +1  BANK12  BANK13  BANK14  BANK15
  2666 ;;      Params:        12       0       0       0       0       0       0       0       0       0       0       0       
      +0       0       0       0       0
  2667 ;;      Locals:         9       0       0       0       0       0       0       0       0       0       0       0       
      +0       0       0       0       0
  2668 ;;      Temps:          4       0       0       0       0       0       0       0       0       0       0       0       
      +0       0       0       0       0
  2669 ;;      Totals:        25       0       0       0       0       0       0       0       0       0       0       0       
      +0       0       0       0       0
  2670 ;;Total ram usage:       25 bytes
  2671 ;; Hardware stack levels used:    1
  2672 ;; Hardware stack levels required when called:    1
  2673 ;; This function calls:
  2674 ;;		___lwdiv
  2675 ;;		___lwmod
  2676 ;;		___wmul
  2677 ;;		_isdigit
  2678 ;; This function is called by:
  2679 ;;		_main
  2680 ;;		_execute_part2_radar
  2681 ;; This function uses a non-reentrant model
  2682 ;;
  2683                           
  2684                           	psect	text12
  2685  00139E                     __ptext12:
  2686                           	opt stack 0
  2687  00139E                     _sprintf:
  2688                           	opt stack 29
  2689                           
  2690                           ;doprnt.c: 494: va_list ap;
  2691                           ;doprnt.c: 499: signed char c;
  2692                           ;doprnt.c: 501: int width;
  2693                           ;doprnt.c: 506: signed char prec;
  2694                           ;doprnt.c: 508: unsigned char flag;
  2695                           ;doprnt.c: 523: union {
  2696                           ;doprnt.c: 524: unsigned long vd;
  2697                           ;doprnt.c: 525: double integ;
  2698                           ;doprnt.c: 526: } tmpval;
  2699                           ;doprnt.c: 528: unsigned int val;
  2700                           ;doprnt.c: 529: unsigned len;
  2701                           ;doprnt.c: 530: const char * cp;
  2702                           ;doprnt.c: 533: *ap = __va_start();
  2703                           
  2704                           ;incstack = 0
  2705  00139E  0E11               	movlw	low (?_sprintf+4)
  2706  0013A0  6E1E               	movwf	sprintf@ap,c
  2707  0013A2  0E00               	movlw	high (?_sprintf+4)
  2708  0013A4  6E1F               	movwf	sprintf@ap+1,c
  2709                           
  2710                           ;doprnt.c: 536: while(c = *f++) {
  2711  0013A6  D0E1               	goto	u1500
  2712  0013A8                     
  2713                           ;doprnt.c: 538: if(c != '%')
  2714  0013A8  0E25               	movlw	37
  2715  0013AA  1825               	xorwf	sprintf@c,w,c
  2716  0013AC  B4D8               	btfsc	status,2,c
  2717  0013AE  D009               	goto	l436
  2718                           
  2719                           ;doprnt.c: 540: {
  2720                           ;doprnt.c: 541: ((*sp++ = (c)));
  2721  0013B0  C00D  FFD9         	movff	sprintf@sp,fsr2l
  2722  0013B4  C00E  FFDA         	movff	sprintf@sp+1,fsr2h
  2723  0013B8  C025  FFDF         	movff	sprintf@c,indf2
  2724  0013BC  4A0D               	infsnz	sprintf@sp,f,c
  2725  0013BE  2A0E               	incf	sprintf@sp+1,f,c
  2726                           
  2727                           ;doprnt.c: 542: continue;
  2728  0013C0  D0D4               	goto	u1500
  2729  0013C2                     l436:
  2730                           
  2731                           ;doprnt.c: 543: }
  2732                           ;doprnt.c: 546: width = 0;
  2733  0013C2  0E00               	movlw	0
  2734  0013C4  6E24               	movwf	sprintf@width+1,c
  2735  0013C6  0E00               	movlw	0
  2736  0013C8  6E23               	movwf	sprintf@width,c
  2737                           
  2738                           ;doprnt.c: 548: flag = 0;
  2739  0013CA  0E00               	movlw	0
  2740  0013CC  6E1D               	movwf	sprintf@flag,c
  2741                           
  2742                           ;doprnt.c: 597: if(isdigit((unsigned)*f)) {
  2743  0013CE  C00F  FFF6         	movff	sprintf@f,tblptrl
  2744  0013D2  C010  FFF7         	movff	sprintf@f+1,tblptrh
  2745  0013D6                     	if	0	;tblptru may be non-zero
  2746  0013D6                     	endif
  2747  0013D6                     	if	0	;tblptru may be non-zero
  2748  0013D6                     	endif
  2749  0013D6  0008               	tblrd		*
  2750  0013D8  50F5               	movf	tablat,w,c
  2751  0013DA  EC51  F011         	call	_isdigit
  2752  0013DE  A0D8               	btfss	status,0,c
  2753  0013E0  D036               	goto	l440
  2754                           
  2755                           ;doprnt.c: 598: width = 0;
  2756  0013E2  0E00               	movlw	0
  2757  0013E4  6E24               	movwf	sprintf@width+1,c
  2758  0013E6  0E00               	movlw	0
  2759  0013E8  6E23               	movwf	sprintf@width,c
  2760  0013EA                     
  2761                           ;doprnt.c: 600: width *= 10;
  2762  0013EA  C023  F001         	movff	sprintf@width,___wmul@multiplier
  2763  0013EE  C024  F002         	movff	sprintf@width+1,___wmul@multiplier+1
  2764  0013F2  0E00               	movlw	0
  2765  0013F4  6E04               	movwf	___wmul@multiplicand+1,c
  2766  0013F6  0E0A               	movlw	10
  2767  0013F8  6E03               	movwf	___wmul@multiplicand,c
  2768  0013FA  ECD7  F010         	call	___wmul	;wreg free
  2769  0013FE  C001  F023         	movff	?___wmul,sprintf@width
  2770  001402  C002  F024         	movff	?___wmul+1,sprintf@width+1
  2771                           
  2772                           ;doprnt.c: 601: width += *f++ - '0';
  2773  001406  0ED0               	movlw	208
  2774  001408  6E19               	movwf	??_sprintf& (0+255),c
  2775  00140A  0EFF               	movlw	255
  2776  00140C  6E1A               	movwf	(??_sprintf+1)& (0+255),c
  2777  00140E  C00F  FFF6         	movff	sprintf@f,tblptrl
  2778  001412  C010  FFF7         	movff	sprintf@f+1,tblptrh
  2779  001416                     	if	0	;tblptru may be non-zero
  2780  001416                     	endif
  2781  001416                     	if	0	;tblptru may be non-zero
  2782  001416                     	endif
  2783  001416  0008               	tblrd		*
  2784  001418  50F5               	movf	tablat,w,c
  2785  00141A  6E1B               	movwf	(??_sprintf+2)& (0+255),c
  2786  00141C  6A1C               	clrf	(??_sprintf+3)& (0+255),c
  2787  00141E  5019               	movf	??_sprintf,w,c
  2788  001420  261B               	addwf	??_sprintf+2,f,c
  2789  001422  501A               	movf	??_sprintf+1,w,c
  2790  001424  221C               	addwfc	??_sprintf+3,f,c
  2791  001426  501B               	movf	??_sprintf+2,w,c
  2792  001428  2623               	addwf	sprintf@width,f,c
  2793  00142A  501C               	movf	??_sprintf+3,w,c
  2794  00142C  2224               	addwfc	sprintf@width+1,f,c
  2795  00142E  4A0F               	infsnz	sprintf@f,f,c
  2796  001430  2A10               	incf	sprintf@f+1,f,c
  2797                           
  2798                           ;doprnt.c: 602: } while(isdigit((unsigned)*f));
  2799  001432  C00F  FFF6         	movff	sprintf@f,tblptrl
  2800  001436  C010  FFF7         	movff	sprintf@f+1,tblptrh
  2801  00143A                     	if	0	;tblptru may be non-zero
  2802  00143A                     	endif
  2803  00143A                     	if	0	;tblptru may be non-zero
  2804  00143A                     	endif
  2805  00143A  0008               	tblrd		*
  2806  00143C  50F5               	movf	tablat,w,c
  2807  00143E  EC51  F011         	call	_isdigit
  2808  001442  A0D8               	btfss	status,0,c
  2809  001444  D004               	goto	l440
  2810  001446  D7D1               	goto	l438
  2811  001448                     
  2812                           ;doprnt.c: 818: flag |= 0xC0;
  2813  001448  0EC0               	movlw	192
  2814  00144A  121D               	iorwf	sprintf@flag,f,c
  2815                           
  2816                           ;doprnt.c: 822: }
  2817                           
  2818                           ;doprnt.c: 819: break;
  2819  00144C  D011               	goto	l445
  2820  00144E                     l440:
  2821  00144E  C00F  FFF6         	movff	sprintf@f,tblptrl
  2822  001452  C010  FFF7         	movff	sprintf@f+1,tblptrh
  2823  001456  4A0F               	infsnz	sprintf@f,f,c
  2824  001458  2A10               	incf	sprintf@f+1,f,c
  2825  00145A                     	if	0	;tblptru may be non-zero
  2826  00145A                     	endif
  2827  00145A                     	if	0	;tblptru may be non-zero
  2828  00145A                     	endif
  2829  00145A  0008               	tblrd		*
  2830  00145C  CFF5 F025          	movff	tablat,sprintf@c
  2831  001460  5025               	movf	sprintf@c,w,c
  2832                           
  2833                           ; Switch size 1, requested type "space"
  2834                           ; Number of cases is 2, Range of values is 0 to 117
  2835                           ; switch strategies available:
  2836                           ; Name         Instructions Cycles
  2837                           ; simple_byte            7     4 (average)
  2838                           ;	Chosen strategy is simple_byte
  2839  001462  0A00               	xorlw	0	; case 0
  2840  001464  B4D8               	btfsc	status,2,c
  2841  001466  D08D               	goto	u1510
  2842  001468  0A75               	xorlw	117	; case 117
  2843  00146A  B4D8               	btfsc	status,2,c
  2844  00146C  D7ED               	goto	l444
  2845  00146E  D07D               	goto	u1500
  2846  001470                     l445:
  2847                           
  2848                           ;doprnt.c: 1273: {
  2849                           ;doprnt.c: 1286: val = (*(unsigned *)__va_arg((*(unsigned **)ap), (unsigned)0));
  2850  001470  C01E  FFD9         	movff	sprintf@ap,fsr2l
  2851  001474  C01F  FFDA         	movff	sprintf@ap+1,fsr2h
  2852  001478  CFDE F020          	movff	postinc2,sprintf@val
  2853  00147C  CFDD F021          	movff	postdec2,sprintf@val+1
  2854  001480  0E02               	movlw	2
  2855  001482  261E               	addwf	sprintf@ap,f,c
  2856  001484  0E00               	movlw	0
  2857  001486  221F               	addwfc	sprintf@ap+1,f,c
  2858                           
  2859                           ;doprnt.c: 1287: }
  2860                           ;doprnt.c: 1305: for(c = 1 ; c != sizeof dpowers/sizeof dpowers[0] ; c++)
  2861  001488  0E01               	movlw	1
  2862  00148A  6E25               	movwf	sprintf@c,c
  2863  00148C                     l2337:
  2864  00148C  0E05               	movlw	5
  2865  00148E  1825               	xorwf	sprintf@c,w,c
  2866  001490  B4D8               	btfsc	status,2,c
  2867  001492  D012               	goto	u1460
  2868                           
  2869                           ;doprnt.c: 1306: if(val < dpowers[c])
  2870  001494  5025               	movf	sprintf@c,w,c
  2871  001496  0D02               	mullw	2
  2872  001498  0E0E               	movlw	low _dpowers
  2873  00149A  24F3               	addwf	prodl,w,c
  2874  00149C  6EF6               	movwf	tblptrl,c
  2875  00149E  0E10               	movlw	high _dpowers
  2876  0014A0  20F4               	addwfc	prodh,w,c
  2877  0014A2  6EF7               	movwf	tblptrh,c
  2878  0014A4                     	if	0	;There are less than 3 active tblptr bytes
  2879  0014A4                     	endif
  2880  0014A4  0009               	tblrd		*+
  2881  0014A6  50F5               	movf	tablat,w,c
  2882  0014A8  5C20               	subwf	sprintf@val,w,c
  2883  0014AA  0009               	tblrd		*+
  2884  0014AC  50F5               	movf	tablat,w,c
  2885  0014AE  5821               	subwfb	sprintf@val+1,w,c
  2886  0014B0  A0D8               	btfss	status,0,c
  2887  0014B2  D002               	goto	u1460
  2888                           
  2889                           ;doprnt.c: 1307: break;
  2890  0014B4  2A25               	incf	sprintf@c,f,c
  2891  0014B6  D7EA               	goto	l2337
  2892  0014B8                     u1460:
  2893                           
  2894                           ;doprnt.c: 1381: if(width > c)
  2895  0014B8  0E80               	movlw	128
  2896  0014BA  BE25               	btfsc	sprintf@c,7,c
  2897  0014BC  0E7F               	movlw	127
  2898  0014BE  6E19               	movwf	??_sprintf& (0+255),c
  2899  0014C0  5023               	movf	sprintf@width,w,c
  2900  0014C2  5C25               	subwf	sprintf@c,w,c
  2901  0014C4  5024               	movf	sprintf@width+1,w,c
  2902  0014C6  0A80               	xorlw	128
  2903  0014C8  5819               	subwfb	??_sprintf& (0+255),w,c
  2904  0014CA  B0D8               	btfsc	status,0,c
  2905  0014CC  D007               	goto	l449
  2906                           
  2907                           ;doprnt.c: 1382: width -= c;
  2908  0014CE  5025               	movf	sprintf@c,w,c
  2909  0014D0  5E23               	subwf	sprintf@width,f,c
  2910  0014D2  0E00               	movlw	0
  2911  0014D4  BE25               	btfsc	sprintf@c,7,c
  2912  0014D6  0EFF               	movlw	255
  2913  0014D8  5A24               	subwfb	sprintf@width+1,f,c
  2914  0014DA  D004               	goto	l450
  2915  0014DC                     l449:
  2916                           
  2917                           ;doprnt.c: 1383: else
  2918                           ;doprnt.c: 1384: width = 0;
  2919  0014DC  0E00               	movlw	0
  2920  0014DE  6E24               	movwf	sprintf@width+1,c
  2921  0014E0  0E00               	movlw	0
  2922  0014E2  6E23               	movwf	sprintf@width,c
  2923  0014E4                     l450:
  2924                           
  2925                           ;doprnt.c: 1422: {
  2926                           ;doprnt.c: 1424: if(width
  2927                           ;doprnt.c: 1428: )
  2928  0014E4  5023               	movf	sprintf@width,w,c
  2929  0014E6  1024               	iorwf	sprintf@width+1,w,c
  2930  0014E8  B4D8               	btfsc	status,2,c
  2931  0014EA  D00F               	goto	u1490
  2932  0014EC                     u1480:
  2933                           
  2934                           ;doprnt.c: 1430: ((*sp++ = (' ')));
  2935                           
  2936                           ;doprnt.c: 1429: do
  2937  0014EC  C00D  FFD9         	movff	sprintf@sp,fsr2l
  2938  0014F0  C00E  FFDA         	movff	sprintf@sp+1,fsr2h
  2939  0014F4  0E20               	movlw	32
  2940  0014F6  6EDF               	movwf	indf2,c
  2941  0014F8  4A0D               	infsnz	sprintf@sp,f,c
  2942  0014FA  2A0E               	incf	sprintf@sp+1,f,c
  2943                           
  2944                           ;doprnt.c: 1431: while(--width);
  2945  0014FC  0623               	decf	sprintf@width,f,c
  2946  0014FE  A0D8               	btfss	status,0,c
  2947  001500  0624               	decf	sprintf@width+1,f,c
  2948  001502  5023               	movf	sprintf@width,w,c
  2949  001504  1024               	iorwf	sprintf@width+1,w,c
  2950  001506  A4D8               	btfss	status,2,c
  2951  001508  D7F1               	goto	u1480
  2952  00150A                     u1490:
  2953                           
  2954                           ;doprnt.c: 1469: }
  2955                           ;doprnt.c: 1472: prec = c;
  2956  00150A  C025  F022         	movff	sprintf@c,sprintf@prec
  2957                           
  2958                           ;doprnt.c: 1474: while(prec--) {
  2959  00150E  D029               	goto	l454
  2960  001510                     
  2961                           ;doprnt.c: 1478: {
  2962                           ;doprnt.c: 1489: c = (val / dpowers[prec]) % 10 + '0';
  2963  001510  5022               	movf	sprintf@prec,w,c
  2964  001512  0D02               	mullw	2
  2965  001514  0E0E               	movlw	low _dpowers
  2966  001516  24F3               	addwf	prodl,w,c
  2967  001518  6EF6               	movwf	tblptrl,c
  2968  00151A  0E10               	movlw	high _dpowers
  2969  00151C  20F4               	addwfc	prodh,w,c
  2970  00151E  6EF7               	movwf	tblptrh,c
  2971  001520                     	if	0	;There are less than 3 active tblptr bytes
  2972  001520                     	endif
  2973  001520  0009               	tblrd		*+
  2974  001522  CFF5 F003          	movff	tablat,___lwdiv@divisor
  2975  001526  000A               	tblrd		*-
  2976  001528  CFF5 F004          	movff	tablat,___lwdiv@divisor+1
  2977  00152C  C020  F001         	movff	sprintf@val,___lwdiv@dividend
  2978  001530  C021  F002         	movff	sprintf@val+1,___lwdiv@dividend+1
  2979  001534  EC35  F00F         	call	___lwdiv	;wreg free
  2980  001538  C001  F008         	movff	?___lwdiv,___lwmod@dividend
  2981  00153C  C002  F009         	movff	?___lwdiv+1,___lwmod@dividend+1
  2982  001540  0E00               	movlw	0
  2983  001542  6E0B               	movwf	___lwmod@divisor+1,c
  2984  001544  0E0A               	movlw	10
  2985  001546  6E0A               	movwf	___lwmod@divisor,c
  2986  001548  ECC8  F00F         	call	___lwmod	;wreg free
  2987  00154C  5008               	movf	?___lwmod,w,c
  2988  00154E  0F30               	addlw	48
  2989  001550  6E25               	movwf	sprintf@c,c
  2990                           
  2991                           ;doprnt.c: 1523: }
  2992                           ;doprnt.c: 1524: ((*sp++ = (c)));
  2993  001552  C00D  FFD9         	movff	sprintf@sp,fsr2l
  2994  001556  C00E  FFDA         	movff	sprintf@sp+1,fsr2h
  2995  00155A  C025  FFDF         	movff	sprintf@c,indf2
  2996  00155E  4A0D               	infsnz	sprintf@sp,f,c
  2997  001560  2A0E               	incf	sprintf@sp+1,f,c
  2998  001562                     l454:
  2999  001562  0622               	decf	sprintf@prec,f,c
  3000  001564  2822               	incf	sprintf@prec,w,c
  3001  001566  A4D8               	btfss	status,2,c
  3002  001568  D7D3               	goto	l455
  3003  00156A                     u1500:
  3004  00156A  C00F  FFF6         	movff	sprintf@f,tblptrl
  3005  00156E  C010  FFF7         	movff	sprintf@f+1,tblptrh
  3006  001572  4A0F               	infsnz	sprintf@f,f,c
  3007  001574  2A10               	incf	sprintf@f+1,f,c
  3008  001576                     	if	0	;tblptru may be non-zero
  3009  001576                     	endif
  3010  001576                     	if	0	;tblptru may be non-zero
  3011  001576                     	endif
  3012  001576  0008               	tblrd		*
  3013  001578  CFF5 F025          	movff	tablat,sprintf@c
  3014  00157C  5025               	movf	sprintf@c,w,c
  3015  00157E  A4D8               	btfss	status,2,c
  3016  001580  D713               	goto	l435
  3017  001582                     u1510:
  3018                           
  3019                           ;doprnt.c: 1538: *sp = 0;
  3020                           
  3021                           ;doprnt.c: 1525: }
  3022                           ;doprnt.c: 1533: }
  3023                           ;doprnt.c: 1535: alldone:
  3024  001582  C00D  FFD9         	movff	sprintf@sp,fsr2l
  3025  001586  C00E  FFDA         	movff	sprintf@sp+1,fsr2h
  3026  00158A  0E00               	movlw	0
  3027  00158C  6EDF               	movwf	indf2,c
  3028  00158E  0012               	return	
  3029  001590                     __end_of_sprintf:
  3030                           	opt stack 0
  3031                           tblptru	equ	0xFF8
  3032                           tblptrh	equ	0xFF7
  3033                           tblptrl	equ	0xFF6
  3034                           tablat	equ	0xFF5
  3035                           prodh	equ	0xFF4
  3036                           prodl	equ	0xFF3
  3037                           intcon	equ	0xFF2
  3038                           intcon2	equ	0xFF1
  3039                           postinc0	equ	0xFEE
  3040                           postdec1	equ	0xFE5
  3041                           fsr1l	equ	0xFE1
  3042                           indf2	equ	0xFDF
  3043                           postinc2	equ	0xFDE
  3044                           postdec2	equ	0xFDD
  3045                           fsr2h	equ	0xFDA
  3046                           fsr2l	equ	0xFD9
  3047                           status	equ	0xFD8
  3048                           
  3049 ;; *************** function _isdigit *****************
  3050 ;; Defined at:
  3051 ;;		line 8 in file "C:\Program Files (x86)\Microchip\xc8\v1.45\sources\common\isdigit.c"
  3052 ;; Parameters:    Size  Location     Type
  3053 ;;  c               1    wreg     unsigned char 
  3054 ;; Auto vars:     Size  Location     Type
  3055 ;;  c               1    2[COMRAM] unsigned char 
  3056 ;; Return value:  Size  Location     Type
  3057 ;;		None               void
  3058 ;; Registers used:
  3059 ;;		wreg, status,2, status,0
  3060 ;; Tracked objects:
  3061 ;;		On entry : 0/0
  3062 ;;		On exit  : 0/0
  3063 ;;		Unchanged: 0/0
  3064 ;; Data sizes:     COMRAM   BANK0   BANK1   BANK2   BANK3   BANK4   BANK5   BANK6   BANK7   BANK8   BANK9  BANK10  BANK1
      +1  BANK12  BANK13  BANK14  BANK15
  3065 ;;      Params:         0       0       0       0       0       0       0       0       0       0       0       0       
      +0       0       0       0       0
  3066 ;;      Locals:         2       0       0       0       0       0       0       0       0       0       0       0       
      +0       0       0       0       0
  3067 ;;      Temps:          1       0       0       0       0       0       0       0       0       0       0       0       
      +0       0       0       0       0
  3068 ;;      Totals:         3       0       0       0       0       0       0       0       0       0       0       0       
      +0       0       0       0       0
  3069 ;;Total ram usage:        3 bytes
  3070 ;; Hardware stack levels used:    1
  3071 ;; This function calls:
  3072 ;;		Nothing
  3073 ;; This function is called by:
  3074 ;;		_sprintf
  3075 ;; This function uses a non-reentrant model
  3076 ;;
  3077                           
  3078                           	psect	text13
  3079  0022A2                     __ptext13:
  3080                           	opt stack 0
  3081  0022A2                     _isdigit:
  3082                           	opt stack 29
  3083                           
  3084                           ;incstack = 0
  3085                           ;isdigit@c stored from wreg
  3086  0022A2  6E03               	movwf	isdigit@c,c
  3087  0022A4  0E00               	movlw	0
  3088  0022A6  6E02               	movwf	_isdigit$1399,c
  3089  0022A8  0E3A               	movlw	58
  3090  0022AA  6003               	cpfslt	isdigit@c,c
  3091  0022AC  D005               	goto	l788
  3092  0022AE  0E2F               	movlw	47
  3093  0022B0  6403               	cpfsgt	isdigit@c,c
  3094  0022B2  D002               	goto	l788
  3095  0022B4  0E01               	movlw	1
  3096  0022B6  6E02               	movwf	_isdigit$1399,c
  3097  0022B8                     l788:
  3098  0022B8  C002  F001         	movff	_isdigit$1399,??_isdigit
  3099  0022BC  3001               	rrcf	??_isdigit,w,c
  3100  0022BE  0012               	return	
  3101  0022C0                     __end_of_isdigit:
  3102                           	opt stack 0
  3103                           tblptru	equ	0xFF8
  3104                           tblptrh	equ	0xFF7
  3105                           tblptrl	equ	0xFF6
  3106                           tablat	equ	0xFF5
  3107                           prodh	equ	0xFF4
  3108                           prodl	equ	0xFF3
  3109                           intcon	equ	0xFF2
  3110                           intcon2	equ	0xFF1
  3111                           postinc0	equ	0xFEE
  3112                           postdec1	equ	0xFE5
  3113                           fsr1l	equ	0xFE1
  3114                           indf2	equ	0xFDF
  3115                           postinc2	equ	0xFDE
  3116                           postdec2	equ	0xFDD
  3117                           fsr2h	equ	0xFDA
  3118                           fsr2l	equ	0xFD9
  3119                           status	equ	0xFD8
  3120                           
  3121 ;; *************** function ___wmul *****************
  3122 ;; Defined at:
  3123 ;;		line 15 in file "C:\Program Files (x86)\Microchip\xc8\v1.45\sources\common\Umul16.c"
  3124 ;; Parameters:    Size  Location     Type
  3125 ;;  multiplier      2    0[COMRAM] unsigned int 
  3126 ;;  multiplicand    2    2[COMRAM] unsigned int 
  3127 ;; Auto vars:     Size  Location     Type
  3128 ;;  product         2    4[COMRAM] unsigned int 
  3129 ;; Return value:  Size  Location     Type
  3130 ;;                  2    0[COMRAM] unsigned int 
  3131 ;; Registers used:
  3132 ;;		wreg, status,2, status,0, prodl, prodh
  3133 ;; Tracked objects:
  3134 ;;		On entry : 0/0
  3135 ;;		On exit  : 0/0
  3136 ;;		Unchanged: 0/0
  3137 ;; Data sizes:     COMRAM   BANK0   BANK1   BANK2   BANK3   BANK4   BANK5   BANK6   BANK7   BANK8   BANK9  BANK10  BANK1
      +1  BANK12  BANK13  BANK14  BANK15
  3138 ;;      Params:         4       0       0       0       0       0       0       0       0       0       0       0       
      +0       0       0       0       0
  3139 ;;      Locals:         2       0       0       0       0       0       0       0       0       0       0       0       
      +0       0       0       0       0
  3140 ;;      Temps:          0       0       0       0       0       0       0       0       0       0       0       0       
      +0       0       0       0       0
  3141 ;;      Totals:         6       0       0       0       0       0       0       0       0       0       0       0       
      +0       0       0       0       0
  3142 ;;Total ram usage:        6 bytes
  3143 ;; Hardware stack levels used:    1
  3144 ;; This function calls:
  3145 ;;		Nothing
  3146 ;; This function is called by:
  3147 ;;		_sprintf
  3148 ;; This function uses a non-reentrant model
  3149 ;;
  3150                           
  3151                           	psect	text14
  3152  0021AE                     __ptext14:
  3153                           	opt stack 0
  3154  0021AE                     ___wmul:
  3155                           	opt stack 29
  3156                           
  3157                           ;incstack = 0
  3158  0021AE  5001               	movf	___wmul@multiplier,w,c
  3159  0021B0  0203               	mulwf	___wmul@multiplicand,c
  3160  0021B2  CFF3 F005          	movff	prodl,___wmul@product
  3161  0021B6  CFF4 F006          	movff	prodh,___wmul@product+1
  3162  0021BA  5001               	movf	___wmul@multiplier,w,c
  3163  0021BC  0204               	mulwf	___wmul@multiplicand+1,c
  3164  0021BE  50F3               	movf	prodl,w,c
  3165  0021C0  2606               	addwf	___wmul@product+1,f,c
  3166  0021C2  5002               	movf	___wmul@multiplier+1,w,c
  3167  0021C4  0203               	mulwf	___wmul@multiplicand,c
  3168  0021C6  50F3               	movf	prodl,w,c
  3169  0021C8  2606               	addwf	___wmul@product+1,f,c
  3170  0021CA  C005  F001         	movff	___wmul@product,?___wmul
  3171  0021CE  C006  F002         	movff	___wmul@product+1,?___wmul+1
  3172  0021D2  0012               	return	
  3173  0021D4                     __end_of___wmul:
  3174                           	opt stack 0
  3175                           tblptru	equ	0xFF8
  3176                           tblptrh	equ	0xFF7
  3177                           tblptrl	equ	0xFF6
  3178                           tablat	equ	0xFF5
  3179                           prodh	equ	0xFF4
  3180                           prodl	equ	0xFF3
  3181                           intcon	equ	0xFF2
  3182                           intcon2	equ	0xFF1
  3183                           postinc0	equ	0xFEE
  3184                           postdec1	equ	0xFE5
  3185                           fsr1l	equ	0xFE1
  3186                           indf2	equ	0xFDF
  3187                           postinc2	equ	0xFDE
  3188                           postdec2	equ	0xFDD
  3189                           fsr2h	equ	0xFDA
  3190                           fsr2l	equ	0xFD9
  3191                           status	equ	0xFD8
  3192                           
  3193 ;; *************** function ___lwmod *****************
  3194 ;; Defined at:
  3195 ;;		line 8 in file "C:\Program Files (x86)\Microchip\xc8\v1.45\sources\common\lwmod.c"
  3196 ;; Parameters:    Size  Location     Type
  3197 ;;  dividend        2    7[COMRAM] unsigned int 
  3198 ;;  divisor         2    9[COMRAM] unsigned int 
  3199 ;; Auto vars:     Size  Location     Type
  3200 ;;  counter         1   11[COMRAM] unsigned char 
  3201 ;; Return value:  Size  Location     Type
  3202 ;;                  2    7[COMRAM] unsigned int 
  3203 ;; Registers used:
  3204 ;;		wreg, status,2, status,0
  3205 ;; Tracked objects:
  3206 ;;		On entry : 0/0
  3207 ;;		On exit  : 0/0
  3208 ;;		Unchanged: 0/0
  3209 ;; Data sizes:     COMRAM   BANK0   BANK1   BANK2   BANK3   BANK4   BANK5   BANK6   BANK7   BANK8   BANK9  BANK10  BANK1
      +1  BANK12  BANK13  BANK14  BANK15
  3210 ;;      Params:         4       0       0       0       0       0       0       0       0       0       0       0       
      +0       0       0       0       0
  3211 ;;      Locals:         1       0       0       0       0       0       0       0       0       0       0       0       
      +0       0       0       0       0
  3212 ;;      Temps:          0       0       0       0       0       0       0       0       0       0       0       0       
      +0       0       0       0       0
  3213 ;;      Totals:         5       0       0       0       0       0       0       0       0       0       0       0       
      +0       0       0       0       0
  3214 ;;Total ram usage:        5 bytes
  3215 ;; Hardware stack levels used:    1
  3216 ;; This function calls:
  3217 ;;		Nothing
  3218 ;; This function is called by:
  3219 ;;		_main
  3220 ;;		_sprintf
  3221 ;; This function uses a non-reentrant model
  3222 ;;
  3223                           
  3224                           	psect	text15
  3225  001F90                     __ptext15:
  3226                           	opt stack 0
  3227  001F90                     ___lwmod:
  3228                           	opt stack 29
  3229                           
  3230                           ;incstack = 0
  3231  001F90  500A               	movf	___lwmod@divisor,w,c
  3232  001F92  100B               	iorwf	___lwmod@divisor+1,w,c
  3233  001F94  B4D8               	btfsc	status,2,c
  3234  001F96  D018               	goto	l882
  3235  001F98  0E01               	movlw	1
  3236  001F9A  6E0C               	movwf	___lwmod@counter,c
  3237  001F9C  D004               	goto	l877
  3238  001F9E  90D8               	bcf	status,0,c
  3239  001FA0  360A               	rlcf	___lwmod@divisor,f,c
  3240  001FA2  360B               	rlcf	___lwmod@divisor+1,f,c
  3241  001FA4  2A0C               	incf	___lwmod@counter,f,c
  3242  001FA6                     l877:
  3243  001FA6  AE0B               	btfss	___lwmod@divisor+1,7,c
  3244  001FA8  D7FA               	goto	l878
  3245  001FAA                     u1320:
  3246  001FAA  500A               	movf	___lwmod@divisor,w,c
  3247  001FAC  5C08               	subwf	___lwmod@dividend,w,c
  3248  001FAE  500B               	movf	___lwmod@divisor+1,w,c
  3249  001FB0  5809               	subwfb	___lwmod@dividend+1,w,c
  3250  001FB2  A0D8               	btfss	status,0,c
  3251  001FB4  D004               	goto	l881
  3252  001FB6  500A               	movf	___lwmod@divisor,w,c
  3253  001FB8  5E08               	subwf	___lwmod@dividend,f,c
  3254  001FBA  500B               	movf	___lwmod@divisor+1,w,c
  3255  001FBC  5A09               	subwfb	___lwmod@dividend+1,f,c
  3256  001FBE                     l881:
  3257  001FBE  90D8               	bcf	status,0,c
  3258  001FC0  320B               	rrcf	___lwmod@divisor+1,f,c
  3259  001FC2  320A               	rrcf	___lwmod@divisor,f,c
  3260  001FC4  2E0C               	decfsz	___lwmod@counter,f,c
  3261  001FC6  D7F1               	goto	u1320
  3262  001FC8                     l882:
  3263  001FC8  C008  F008         	movff	___lwmod@dividend,?___lwmod
  3264  001FCC  C009  F009         	movff	___lwmod@dividend+1,?___lwmod+1
  3265  001FD0  0012               	return		;funcret
  3266  001FD2                     __end_of___lwmod:
  3267                           	opt stack 0
  3268                           tblptru	equ	0xFF8
  3269                           tblptrh	equ	0xFF7
  3270                           tblptrl	equ	0xFF6
  3271                           tablat	equ	0xFF5
  3272                           prodh	equ	0xFF4
  3273                           prodl	equ	0xFF3
  3274                           intcon	equ	0xFF2
  3275                           intcon2	equ	0xFF1
  3276                           postinc0	equ	0xFEE
  3277                           postdec1	equ	0xFE5
  3278                           fsr1l	equ	0xFE1
  3279                           indf2	equ	0xFDF
  3280                           postinc2	equ	0xFDE
  3281                           postdec2	equ	0xFDD
  3282                           fsr2h	equ	0xFDA
  3283                           fsr2l	equ	0xFD9
  3284                           status	equ	0xFD8
  3285                           
  3286 ;; *************** function _servo_set_angle *****************
  3287 ;; Defined at:
  3288 ;;		line 433 in file "ourProject.c"
  3289 ;; Parameters:    Size  Location     Type
  3290 ;;  angle           1    wreg     unsigned char 
  3291 ;; Auto vars:     Size  Location     Type
  3292 ;;  angle           1   34[COMRAM] unsigned char 
  3293 ;;  pulse_us        2   32[COMRAM] unsigned int 
  3294 ;;  i               1   35[COMRAM] unsigned char 
  3295 ;; Return value:  Size  Location     Type
  3296 ;;                  1    wreg      void 
  3297 ;; Registers used:
  3298 ;;		wreg, status,2, status,0, cstack
  3299 ;; Tracked objects:
  3300 ;;		On entry : 0/0
  3301 ;;		On exit  : 0/0
  3302 ;;		Unchanged: 0/0
  3303 ;; Data sizes:     COMRAM   BANK0   BANK1   BANK2   BANK3   BANK4   BANK5   BANK6   BANK7   BANK8   BANK9  BANK10  BANK1
      +1  BANK12  BANK13  BANK14  BANK15
  3304 ;;      Params:         0       0       0       0       0       0       0       0       0       0       0       0       
      +0       0       0       0       0
  3305 ;;      Locals:         4       0       0       0       0       0       0       0       0       0       0       0       
      +0       0       0       0       0
  3306 ;;      Temps:          0       0       0       0       0       0       0       0       0       0       0       0       
      +0       0       0       0       0
  3307 ;;      Totals:         4       0       0       0       0       0       0       0       0       0       0       0       
      +0       0       0       0       0
  3308 ;;Total ram usage:        4 bytes
  3309 ;; Hardware stack levels used:    1
  3310 ;; Hardware stack levels required when called:    2
  3311 ;; This function calls:
  3312 ;;		_servo_angle_to_us
  3313 ;;		_servo_pulse_us
  3314 ;; This function is called by:
  3315 ;;		_main
  3316 ;;		_execute_part2_radar
  3317 ;; This function uses a non-reentrant model
  3318 ;;
  3319                           
  3320                           	psect	text16
  3321  002156                     __ptext16:
  3322                           	opt stack 0
  3323  002156                     _servo_set_angle:
  3324                           	opt stack 28
  3325                           
  3326                           ;incstack = 0
  3327                           ;servo_set_angle@angle stored from wreg
  3328  002156  6E23               	movwf	servo_set_angle@angle,c
  3329                           
  3330                           ;ourProject.c: 434: unsigned char i;
  3331                           ;ourProject.c: 435: unsigned int pulse_us;
  3332                           ;ourProject.c: 437: pulse_us = servo_angle_to_us(angle);
  3333  002158  5023               	movf	servo_set_angle@angle,w,c
  3334  00215A  ECC5  F00D         	call	_servo_angle_to_us
  3335  00215E  C01A  F021         	movff	?_servo_angle_to_us,servo_set_angle@pulse_us
  3336  002162  C01B  F022         	movff	?_servo_angle_to_us+1,servo_set_angle@pulse_us+1
  3337                           
  3338                           ;ourProject.c: 439: for(i = 0; i < 8U; i++) {
  3339  002166  0E00               	movlw	0
  3340  002168  6E24               	movwf	servo_set_angle@i,c
  3341  00216A                     l2293:
  3342  00216A  0E07               	movlw	7
  3343  00216C  6424               	cpfsgt	servo_set_angle@i,c
  3344  00216E  D001               	goto	l369
  3345  002170  0012               	return	
  3346  002172                     l369:
  3347                           
  3348                           ;ourProject.c: 440: servo_pulse_us(pulse_us);
  3349  002172  C021  F003         	movff	servo_set_angle@pulse_us,servo_pulse_us@pulse_us
  3350  002176  C022  F004         	movff	servo_set_angle@pulse_us+1,servo_pulse_us@pulse_us+1
  3351  00217A  EC29  F010         	call	_servo_pulse_us	;wreg free
  3352  00217E  2A24               	incf	servo_set_angle@i,f,c
  3353  002180  D7F4               	goto	l2293
  3354  002182                     __end_of_servo_set_angle:
  3355                           	opt stack 0
  3356                           tblptru	equ	0xFF8
  3357                           tblptrh	equ	0xFF7
  3358                           tblptrl	equ	0xFF6
  3359                           tablat	equ	0xFF5
  3360                           prodh	equ	0xFF4
  3361                           prodl	equ	0xFF3
  3362                           intcon	equ	0xFF2
  3363                           intcon2	equ	0xFF1
  3364                           postinc0	equ	0xFEE
  3365                           postdec1	equ	0xFE5
  3366                           fsr1l	equ	0xFE1
  3367                           indf2	equ	0xFDF
  3368                           postinc2	equ	0xFDE
  3369                           postdec2	equ	0xFDD
  3370                           fsr2h	equ	0xFDA
  3371                           fsr2l	equ	0xFD9
  3372                           status	equ	0xFD8
  3373                           
  3374 ;; *************** function _servo_pulse_us *****************
  3375 ;; Defined at:
  3376 ;;		line 423 in file "ourProject.c"
  3377 ;; Parameters:    Size  Location     Type
  3378 ;;  pulse_us        2    2[COMRAM] unsigned int 
  3379 ;; Auto vars:     Size  Location     Type
  3380 ;;		None
  3381 ;; Return value:  Size  Location     Type
  3382 ;;                  1    wreg      void 
  3383 ;; Registers used:
  3384 ;;		wreg, status,2, status,0, cstack
  3385 ;; Tracked objects:
  3386 ;;		On entry : 0/0
  3387 ;;		On exit  : 0/0
  3388 ;;		Unchanged: 0/0
  3389 ;; Data sizes:     COMRAM   BANK0   BANK1   BANK2   BANK3   BANK4   BANK5   BANK6   BANK7   BANK8   BANK9  BANK10  BANK1
      +1  BANK12  BANK13  BANK14  BANK15
  3390 ;;      Params:         2       0       0       0       0       0       0       0       0       0       0       0       
      +0       0       0       0       0
  3391 ;;      Locals:         0       0       0       0       0       0       0       0       0       0       0       0       
      +0       0       0       0       0
  3392 ;;      Temps:          2       0       0       0       0       0       0       0       0       0       0       0       
      +0       0       0       0       0
  3393 ;;      Totals:         4       0       0       0       0       0       0       0       0       0       0       0       
      +0       0       0       0       0
  3394 ;;Total ram usage:        4 bytes
  3395 ;; Hardware stack levels used:    1
  3396 ;; Hardware stack levels required when called:    1
  3397 ;; This function calls:
  3398 ;;		_delay_us_var
  3399 ;; This function is called by:
  3400 ;;		_servo_set_angle
  3401 ;; This function uses a non-reentrant model
  3402 ;;
  3403                           
  3404                           	psect	text17
  3405  002052                     __ptext17:
  3406                           	opt stack 0
  3407  002052                     _servo_pulse_us:
  3408                           	opt stack 28
  3409                           
  3410                           ;ourProject.c: 424: LATCbits.LATC1 = 1;
  3411                           
  3412                           ;incstack = 0
  3413  002052  828B               	bsf	3979,1,c	;volatile
  3414                           
  3415                           ;ourProject.c: 425: delay_us_var(pulse_us);
  3416  002054  C003  F001         	movff	servo_pulse_us@pulse_us,delay_us_var@us
  3417  002058  C004  F002         	movff	servo_pulse_us@pulse_us+1,delay_us_var@us+1
  3418  00205C  ECB4  F00E         	call	_delay_us_var	;wreg free
  3419                           
  3420                           ;ourProject.c: 426: LATCbits.LATC1 = 0;
  3421  002060  928B               	bcf	3979,1,c	;volatile
  3422                           
  3423                           ;ourProject.c: 428: if(pulse_us < 20000U) {
  3424  002062  0E20               	movlw	32
  3425  002064  5C03               	subwf	servo_pulse_us@pulse_us,w,c
  3426  002066  0E4E               	movlw	78
  3427  002068  5804               	subwfb	servo_pulse_us@pulse_us+1,w,c
  3428  00206A  B0D8               	btfsc	status,0,c
  3429  00206C  0012               	return	
  3430                           
  3431                           ;ourProject.c: 429: delay_us_var(20000U - pulse_us);
  3432  00206E  C003  F005         	movff	servo_pulse_us@pulse_us,??_servo_pulse_us
  3433  002072  C004  F006         	movff	servo_pulse_us@pulse_us+1,??_servo_pulse_us+1
  3434  002076  1E05               	comf	??_servo_pulse_us,f,c
  3435  002078  1E06               	comf	??_servo_pulse_us+1,f,c
  3436  00207A  4A05               	infsnz	??_servo_pulse_us,f,c
  3437  00207C  2A06               	incf	??_servo_pulse_us+1,f,c
  3438  00207E  0E20               	movlw	32
  3439  002080  2405               	addwf	??_servo_pulse_us,w,c
  3440  002082  6E01               	movwf	delay_us_var@us,c
  3441  002084  0E4E               	movlw	78
  3442  002086  2006               	addwfc	??_servo_pulse_us+1,w,c
  3443  002088  6E02               	movwf	delay_us_var@us+1,c
  3444  00208A  ECB4  F00E         	call	_delay_us_var	;wreg free
  3445  00208E  0012               	return	
  3446  002090                     __end_of_servo_pulse_us:
  3447                           	opt stack 0
  3448                           tblptru	equ	0xFF8
  3449                           tblptrh	equ	0xFF7
  3450                           tblptrl	equ	0xFF6
  3451                           tablat	equ	0xFF5
  3452                           prodh	equ	0xFF4
  3453                           prodl	equ	0xFF3
  3454                           intcon	equ	0xFF2
  3455                           intcon2	equ	0xFF1
  3456                           postinc0	equ	0xFEE
  3457                           postdec1	equ	0xFE5
  3458                           fsr1l	equ	0xFE1
  3459                           indf2	equ	0xFDF
  3460                           postinc2	equ	0xFDE
  3461                           postdec2	equ	0xFDD
  3462                           fsr2h	equ	0xFDA
  3463                           fsr2l	equ	0xFD9
  3464                           status	equ	0xFD8
  3465                           
  3466 ;; *************** function _servo_angle_to_us *****************
  3467 ;; Defined at:
  3468 ;;		line 410 in file "ourProject.c"
  3469 ;; Parameters:    Size  Location     Type
  3470 ;;  angle           1    wreg     unsigned char 
  3471 ;; Auto vars:     Size  Location     Type
  3472 ;;  angle           1   31[COMRAM] unsigned char 
  3473 ;;  pulse_us        4   27[COMRAM] unsigned long 
  3474 ;; Return value:  Size  Location     Type
  3475 ;;                  2   25[COMRAM] unsigned int 
  3476 ;; Registers used:
  3477 ;;		wreg, status,2, status,0, cstack
  3478 ;; Tracked objects:
  3479 ;;		On entry : 0/0
  3480 ;;		On exit  : 0/0
  3481 ;;		Unchanged: 0/0
  3482 ;; Data sizes:     COMRAM   BANK0   BANK1   BANK2   BANK3   BANK4   BANK5   BANK6   BANK7   BANK8   BANK9  BANK10  BANK1
      +1  BANK12  BANK13  BANK14  BANK15
  3483 ;;      Params:         2       0       0       0       0       0       0       0       0       0       0       0       
      +0       0       0       0       0
  3484 ;;      Locals:         5       0       0       0       0       0       0       0       0       0       0       0       
      +0       0       0       0       0
  3485 ;;      Temps:          0       0       0       0       0       0       0       0       0       0       0       0       
      +0       0       0       0       0
  3486 ;;      Totals:         7       0       0       0       0       0       0       0       0       0       0       0       
      +0       0       0       0       0
  3487 ;;Total ram usage:        7 bytes
  3488 ;; Hardware stack levels used:    1
  3489 ;; Hardware stack levels required when called:    1
  3490 ;; This function calls:
  3491 ;;		___lldiv
  3492 ;;		___lmul
  3493 ;; This function is called by:
  3494 ;;		_servo_set_angle
  3495 ;; This function uses a non-reentrant model
  3496 ;;
  3497                           
  3498                           	psect	text18
  3499  001B8A                     __ptext18:
  3500                           	opt stack 0
  3501  001B8A                     _servo_angle_to_us:
  3502                           	opt stack 28
  3503                           
  3504                           ;incstack = 0
  3505                           ;servo_angle_to_us@angle stored from wreg
  3506  001B8A  6E20               	movwf	servo_angle_to_us@angle,c
  3507                           
  3508                           ;ourProject.c: 411: unsigned long pulse_us;
  3509                           ;ourProject.c: 413: if(angle > 180U) {
  3510  001B8C  0EB4               	movlw	180
  3511  001B8E  6420               	cpfsgt	servo_angle_to_us@angle,c
  3512  001B90  D002               	goto	l361
  3513                           
  3514                           ;ourProject.c: 414: angle = 180U;
  3515  001B92  0EB4               	movlw	180
  3516  001B94  6E20               	movwf	servo_angle_to_us@angle,c
  3517  001B96                     l361:
  3518                           
  3519                           ;ourProject.c: 415: }
  3520                           ;ourProject.c: 417: pulse_us = 1000U;
  3521  001B96  0EE8               	movlw	232
  3522  001B98  6E1C               	movwf	servo_angle_to_us@pulse_us,c
  3523  001B9A  0E03               	movlw	3
  3524  001B9C  6E1D               	movwf	servo_angle_to_us@pulse_us+1,c
  3525  001B9E  0E00               	movlw	0
  3526  001BA0  6E1E               	movwf	servo_angle_to_us@pulse_us+2,c
  3527  001BA2  0E00               	movlw	0
  3528  001BA4  6E1F               	movwf	servo_angle_to_us@pulse_us+3,c
  3529                           
  3530                           ;ourProject.c: 418: pulse_us += ((unsigned long)angle * (2000U - 1000U)) / 180U;
  3531  001BA6  5020               	movf	servo_angle_to_us@angle,w,c
  3532  001BA8  6E01               	movwf	___lmul@multiplier,c
  3533  001BAA  6A02               	clrf	___lmul@multiplier+1,c
  3534  001BAC  6A03               	clrf	___lmul@multiplier+2,c
  3535  001BAE  6A04               	clrf	___lmul@multiplier+3,c
  3536  001BB0  0EE8               	movlw	232
  3537  001BB2  6E05               	movwf	___lmul@multiplicand,c
  3538  001BB4  0E03               	movlw	3
  3539  001BB6  6E06               	movwf	___lmul@multiplicand+1,c
  3540  001BB8  0E00               	movlw	0
  3541  001BBA  6E07               	movwf	___lmul@multiplicand+2,c
  3542  001BBC  0E00               	movlw	0
  3543  001BBE  6E08               	movwf	___lmul@multiplicand+3,c
  3544  001BC0  EC0A  F00F         	call	___lmul	;wreg free
  3545  001BC4  C001  F00D         	movff	?___lmul,___lldiv@dividend
  3546  001BC8  C002  F00E         	movff	?___lmul+1,___lldiv@dividend+1
  3547  001BCC  C003  F00F         	movff	?___lmul+2,___lldiv@dividend+2
  3548  001BD0  C004  F010         	movff	?___lmul+3,___lldiv@dividend+3
  3549  001BD4  0EB4               	movlw	180
  3550  001BD6  6E11               	movwf	___lldiv@divisor,c
  3551  001BD8  0E00               	movlw	0
  3552  001BDA  6E12               	movwf	___lldiv@divisor+1,c
  3553  001BDC  0E00               	movlw	0
  3554  001BDE  6E13               	movwf	___lldiv@divisor+2,c
  3555  001BE0  0E00               	movlw	0
  3556  001BE2  6E14               	movwf	___lldiv@divisor+3,c
  3557  001BE4  EC84  F00D         	call	___lldiv	;wreg free
  3558  001BE8  500D               	movf	?___lldiv,w,c
  3559  001BEA  261C               	addwf	servo_angle_to_us@pulse_us,f,c
  3560  001BEC  500E               	movf	?___lldiv+1,w,c
  3561  001BEE  221D               	addwfc	servo_angle_to_us@pulse_us+1,f,c
  3562  001BF0  500F               	movf	?___lldiv+2,w,c
  3563  001BF2  221E               	addwfc	servo_angle_to_us@pulse_us+2,f,c
  3564  001BF4  5010               	movf	?___lldiv+3,w,c
  3565  001BF6  221F               	addwfc	servo_angle_to_us@pulse_us+3,f,c
  3566                           
  3567                           ;ourProject.c: 420: return (unsigned int)pulse_us;
  3568  001BF8  C01C  F01A         	movff	servo_angle_to_us@pulse_us,?_servo_angle_to_us
  3569  001BFC  C01D  F01B         	movff	servo_angle_to_us@pulse_us+1,?_servo_angle_to_us+1
  3570  001C00  0012               	return	
  3571  001C02                     __end_of_servo_angle_to_us:
  3572                           	opt stack 0
  3573                           tblptru	equ	0xFF8
  3574                           tblptrh	equ	0xFF7
  3575                           tblptrl	equ	0xFF6
  3576                           tablat	equ	0xFF5
  3577                           prodh	equ	0xFF4
  3578                           prodl	equ	0xFF3
  3579                           intcon	equ	0xFF2
  3580                           intcon2	equ	0xFF1
  3581                           postinc0	equ	0xFEE
  3582                           postdec1	equ	0xFE5
  3583                           fsr1l	equ	0xFE1
  3584                           indf2	equ	0xFDF
  3585                           postinc2	equ	0xFDE
  3586                           postdec2	equ	0xFDD
  3587                           fsr2h	equ	0xFDA
  3588                           fsr2l	equ	0xFD9
  3589                           status	equ	0xFD8
  3590                           
  3591 ;; *************** function _send_string_no_lib *****************
  3592 ;; Defined at:
  3593 ;;		line 47 in file "my_ser.c"
  3594 ;; Parameters:    Size  Location     Type
  3595 ;;  p               2    1[COMRAM] PTR const unsigned char 
  3596 ;;		 -> execute_part2_radar@SerialBuffer(24), 
  3597 ;; Auto vars:     Size  Location     Type
  3598 ;;		None
  3599 ;; Return value:  Size  Location     Type
  3600 ;;                  1    wreg      void 
  3601 ;; Registers used:
  3602 ;;		wreg, fsr2l, fsr2h, status,2, status,0, cstack
  3603 ;; Tracked objects:
  3604 ;;		On entry : 0/0
  3605 ;;		On exit  : 0/0
  3606 ;;		Unchanged: 0/0
  3607 ;; Data sizes:     COMRAM   BANK0   BANK1   BANK2   BANK3   BANK4   BANK5   BANK6   BANK7   BANK8   BANK9  BANK10  BANK1
      +1  BANK12  BANK13  BANK14  BANK15
  3608 ;;      Params:         2       0       0       0       0       0       0       0       0       0       0       0       
      +0       0       0       0       0
  3609 ;;      Locals:         0       0       0       0       0       0       0       0       0       0       0       0       
      +0       0       0       0       0
  3610 ;;      Temps:          0       0       0       0       0       0       0       0       0       0       0       0       
      +0       0       0       0       0
  3611 ;;      Totals:         2       0       0       0       0       0       0       0       0       0       0       0       
      +0       0       0       0       0
  3612 ;;Total ram usage:        2 bytes
  3613 ;; Hardware stack levels used:    1
  3614 ;; Hardware stack levels required when called:    1
  3615 ;; This function calls:
  3616 ;;		_send_byte_no_lib
  3617 ;; This function is called by:
  3618 ;;		_execute_part2_radar
  3619 ;; This function uses a non-reentrant model
  3620 ;;
  3621                           
  3622                           	psect	text19
  3623  00221E                     __ptext19:
  3624                           	opt stack 0
  3625  00221E                     _send_string_no_lib:
  3626                           	opt stack 28
  3627                           
  3628                           ;my_ser.c: 48: while (*p) {
  3629                           
  3630                           ;incstack = 0
  3631  00221E  D009               	goto	l157
  3632  002220                     
  3633                           ;my_ser.c: 49: send_byte_no_lib(*p);
  3634  002220  C002  FFD9         	movff	send_string_no_lib@p,fsr2l
  3635  002224  C003  FFDA         	movff	send_string_no_lib@p+1,fsr2h
  3636  002228  50DF               	movf	indf2,w,c
  3637  00222A  EC97  F011         	call	_send_byte_no_lib
  3638                           
  3639                           ;my_ser.c: 50: p++;
  3640  00222E  4A02               	infsnz	send_string_no_lib@p,f,c
  3641  002230  2A03               	incf	send_string_no_lib@p+1,f,c
  3642  002232                     l157:
  3643  002232  C002  FFD9         	movff	send_string_no_lib@p,fsr2l
  3644  002236  C003  FFDA         	movff	send_string_no_lib@p+1,fsr2h
  3645  00223A  50DF               	movf	indf2,w,c
  3646  00223C  B4D8               	btfsc	status,2,c
  3647  00223E  0012               	return	
  3648  002240  D7EF               	goto	l158
  3649  002242                     __end_of_send_string_no_lib:
  3650                           	opt stack 0
  3651                           tblptru	equ	0xFF8
  3652                           tblptrh	equ	0xFF7
  3653                           tblptrl	equ	0xFF6
  3654                           tablat	equ	0xFF5
  3655                           prodh	equ	0xFF4
  3656                           prodl	equ	0xFF3
  3657                           intcon	equ	0xFF2
  3658                           intcon2	equ	0xFF1
  3659                           postinc0	equ	0xFEE
  3660                           postdec1	equ	0xFE5
  3661                           fsr1l	equ	0xFE1
  3662                           indf2	equ	0xFDF
  3663                           postinc2	equ	0xFDE
  3664                           postdec2	equ	0xFDD
  3665                           fsr2h	equ	0xFDA
  3666                           fsr2l	equ	0xFD9
  3667                           status	equ	0xFD8
  3668                           
  3669 ;; *************** function _send_byte_no_lib *****************
  3670 ;; Defined at:
  3671 ;;		line 39 in file "my_ser.c"
  3672 ;; Parameters:    Size  Location     Type
  3673 ;;  c               1    wreg     unsigned char 
  3674 ;; Auto vars:     Size  Location     Type
  3675 ;;  c               1    0[COMRAM] unsigned char 
  3676 ;; Return value:  Size  Location     Type
  3677 ;;                  1    wreg      void 
  3678 ;; Registers used:
  3679 ;;		wreg
  3680 ;; Tracked objects:
  3681 ;;		On entry : 0/0
  3682 ;;		On exit  : 0/0
  3683 ;;		Unchanged: 0/0
  3684 ;; Data sizes:     COMRAM   BANK0   BANK1   BANK2   BANK3   BANK4   BANK5   BANK6   BANK7   BANK8   BANK9  BANK10  BANK1
      +1  BANK12  BANK13  BANK14  BANK15
  3685 ;;      Params:         0       0       0       0       0       0       0       0       0       0       0       0       
      +0       0       0       0       0
  3686 ;;      Locals:         1       0       0       0       0       0       0       0       0       0       0       0       
      +0       0       0       0       0
  3687 ;;      Temps:          0       0       0       0       0       0       0       0       0       0       0       0       
      +0       0       0       0       0
  3688 ;;      Totals:         1       0       0       0       0       0       0       0       0       0       0       0       
      +0       0       0       0       0
  3689 ;;Total ram usage:        1 bytes
  3690 ;; Hardware stack levels used:    1
  3691 ;; This function calls:
  3692 ;;		Nothing
  3693 ;; This function is called by:
  3694 ;;		_send_string_no_lib
  3695 ;;		_main
  3696 ;; This function uses a non-reentrant model
  3697 ;;
  3698                           
  3699                           	psect	text20
  3700  00232E                     __ptext20:
  3701                           	opt stack 0
  3702  00232E                     _send_byte_no_lib:
  3703                           	opt stack 30
  3704                           
  3705                           ;incstack = 0
  3706                           ;send_byte_no_lib@c stored from wreg
  3707  00232E  6E01               	movwf	send_byte_no_lib@c,c
  3708                           
  3709                           ;my_ser.c: 40: while (!TXSTAbits.TRMT)
  3710  002330  D001               	goto	l151
  3711  002332                     l152:
  3712  002332  0004               	clrwdt		;# 
  3713  002334                     l151:
  3714  002334  A2AC               	btfss	4012,1,c	;volatile
  3715  002336  D7FD               	goto	l152
  3716                           
  3717                           ;my_ser.c: 43: }
  3718                           ;my_ser.c: 44: TXREG = c;
  3719  002338  C001  FFAD         	movff	send_byte_no_lib@c,4013	;volatile
  3720  00233C  0012               	return		;funcret
  3721  00233E                     __end_of_send_byte_no_lib:
  3722                           	opt stack 0
  3723                           tblptru	equ	0xFF8
  3724                           tblptrh	equ	0xFF7
  3725                           tblptrl	equ	0xFF6
  3726                           tablat	equ	0xFF5
  3727                           prodh	equ	0xFF4
  3728                           prodl	equ	0xFF3
  3729                           intcon	equ	0xFF2
  3730                           intcon2	equ	0xFF1
  3731                           postinc0	equ	0xFEE
  3732                           postdec1	equ	0xFE5
  3733                           fsr1l	equ	0xFE1
  3734                           indf2	equ	0xFDF
  3735                           postinc2	equ	0xFDE
  3736                           postdec2	equ	0xFDD
  3737                           fsr2h	equ	0xFDA
  3738                           fsr2l	equ	0xFD9
  3739                           status	equ	0xFD8
  3740                           
  3741 ;; *************** function _radar_next_angle *****************
  3742 ;; Defined at:
  3743 ;;		line 444 in file "ourProject.c"
  3744 ;; Parameters:    Size  Location     Type
  3745 ;;		None
  3746 ;; Auto vars:     Size  Location     Type
  3747 ;;		None
  3748 ;; Return value:  Size  Location     Type
  3749 ;;                  1    wreg      void 
  3750 ;; Registers used:
  3751 ;;		wreg, status,2, status,0
  3752 ;; Tracked objects:
  3753 ;;		On entry : 0/0
  3754 ;;		On exit  : 0/0
  3755 ;;		Unchanged: 0/0
  3756 ;; Data sizes:     COMRAM   BANK0   BANK1   BANK2   BANK3   BANK4   BANK5   BANK6   BANK7   BANK8   BANK9  BANK10  BANK1
      +1  BANK12  BANK13  BANK14  BANK15
  3757 ;;      Params:         0       0       0       0       0       0       0       0       0       0       0       0       
      +0       0       0       0       0
  3758 ;;      Locals:         0       0       0       0       0       0       0       0       0       0       0       0       
      +0       0       0       0       0
  3759 ;;      Temps:          0       0       0       0       0       0       0       0       0       0       0       0       
      +0       0       0       0       0
  3760 ;;      Totals:         0       0       0       0       0       0       0       0       0       0       0       0       
      +0       0       0       0       0
  3761 ;;Total ram usage:        0 bytes
  3762 ;; Hardware stack levels used:    1
  3763 ;; This function calls:
  3764 ;;		Nothing
  3765 ;; This function is called by:
  3766 ;;		_execute_part2_radar
  3767 ;; This function uses a non-reentrant model
  3768 ;;
  3769                           
  3770                           	psect	text21
  3771  002090                     __ptext21:
  3772                           	opt stack 0
  3773  002090                     _radar_next_angle:
  3774                           	opt stack 29
  3775                           
  3776                           ;ourProject.c: 445: if(ServoDirection > 0) {
  3777                           
  3778                           ;incstack = 0
  3779  002090  0100               	movlb	0	; () banked
  3780  002092  51BA               	movf	_ServoDirection& (0+255),w,b
  3781  002094  0A80               	xorlw	128
  3782  002096  0F7F               	addlw	-129
  3783  002098  A0D8               	btfss	status,0,c
  3784  00209A  D00A               	goto	l374
  3785                           
  3786                           ; BSR set to: 0
  3787                           ;ourProject.c: 446: if(ServoAngle >= (180U - 5U)) {
  3788  00209C  0EAE               	movlw	174
  3789  00209E  65B7               	cpfsgt	_ServoAngle& (0+255),b
  3790  0020A0  D004               	goto	l375
  3791                           
  3792                           ; BSR set to: 0
  3793                           ;ourProject.c: 447: ServoAngle = 180U;
  3794  0020A2  0EB4               	movlw	180
  3795  0020A4  6FB7               	movwf	_ServoAngle& (0+255),b
  3796                           
  3797                           ; BSR set to: 0
  3798                           ;ourProject.c: 448: ServoDirection = -1;
  3799  0020A6  69BA               	setf	_ServoDirection& (0+255),b
  3800                           
  3801                           ;ourProject.c: 449: }
  3802  0020A8  0012               	return	
  3803  0020AA                     l375:
  3804                           
  3805                           ; BSR set to: 0
  3806                           ;ourProject.c: 450: else {
  3807                           ;ourProject.c: 451: ServoAngle += 5U;
  3808                           
  3809                           ; BSR set to: 0
  3810  0020AA  0E05               	movlw	5
  3811  0020AC  27B7               	addwf	_ServoAngle& (0+255),f,b
  3812                           
  3813                           ; BSR set to: 0
  3814                           ;ourProject.c: 452: }
  3815                           ;ourProject.c: 453: }
  3816  0020AE  0012               	return	
  3817  0020B0                     l374:
  3818                           
  3819                           ; BSR set to: 0
  3820                           ;ourProject.c: 454: else {
  3821                           ;ourProject.c: 455: if(ServoAngle <= 5U) {
  3822                           
  3823                           ; BSR set to: 0
  3824  0020B0  0E06               	movlw	6
  3825  0020B2  61B7               	cpfslt	_ServoAngle& (0+255),b
  3826  0020B4  D005               	goto	l378
  3827                           
  3828                           ; BSR set to: 0
  3829                           ;ourProject.c: 456: ServoAngle = 0;
  3830  0020B6  0E00               	movlw	0
  3831  0020B8  6FB7               	movwf	_ServoAngle& (0+255),b
  3832                           
  3833                           ;ourProject.c: 457: ServoDirection = 1;
  3834  0020BA  0E01               	movlw	1
  3835  0020BC  6FBA               	movwf	_ServoDirection& (0+255),b
  3836                           
  3837                           ;ourProject.c: 458: }
  3838  0020BE  0012               	return	
  3839  0020C0                     l378:
  3840                           
  3841                           ; BSR set to: 0
  3842                           ;ourProject.c: 459: else {
  3843                           ;ourProject.c: 460: ServoAngle -= 5U;
  3844                           
  3845                           ; BSR set to: 0
  3846  0020C0  0E05               	movlw	5
  3847  0020C2  5FB7               	subwf	_ServoAngle& (0+255),f,b
  3848                           
  3849                           ; BSR set to: 0
  3850  0020C4  0012               	return	
  3851  0020C6                     __end_of_radar_next_angle:
  3852                           	opt stack 0
  3853                           tblptru	equ	0xFF8
  3854                           tblptrh	equ	0xFF7
  3855                           tblptrl	equ	0xFF6
  3856                           tablat	equ	0xFF5
  3857                           prodh	equ	0xFF4
  3858                           prodl	equ	0xFF3
  3859                           intcon	equ	0xFF2
  3860                           intcon2	equ	0xFF1
  3861                           postinc0	equ	0xFEE
  3862                           postdec1	equ	0xFE5
  3863                           fsr1l	equ	0xFE1
  3864                           indf2	equ	0xFDF
  3865                           postinc2	equ	0xFDE
  3866                           postdec2	equ	0xFDD
  3867                           fsr2h	equ	0xFDA
  3868                           fsr2l	equ	0xFD9
  3869                           status	equ	0xFD8
  3870                           
  3871 ;; *************** function _lcd_puts *****************
  3872 ;; Defined at:
  3873 ;;		line 121 in file "lcd_x8.c"
  3874 ;; Parameters:    Size  Location     Type
  3875 ;;  s               2   14[COMRAM] PTR const unsigned char 
  3876 ;;		 -> STR_10(17), STR_7(17), STR_6(17), execute_part2_radar@Buffer(17), 
  3877 ;;		 -> main@Buffer(32), STR_1(12), 
  3878 ;; Auto vars:     Size  Location     Type
  3879 ;;		None
  3880 ;; Return value:  Size  Location     Type
  3881 ;;                  1    wreg      void 
  3882 ;; Registers used:
  3883 ;;		wreg, fsr0l, fsr0h, status,2, status,0, tblptrl, tblptrh, tblptru, cstack
  3884 ;; Tracked objects:
  3885 ;;		On entry : 0/0
  3886 ;;		On exit  : 0/0
  3887 ;;		Unchanged: 0/0
  3888 ;; Data sizes:     COMRAM   BANK0   BANK1   BANK2   BANK3   BANK4   BANK5   BANK6   BANK7   BANK8   BANK9  BANK10  BANK1
      +1  BANK12  BANK13  BANK14  BANK15
  3889 ;;      Params:         2       0       0       0       0       0       0       0       0       0       0       0       
      +0       0       0       0       0
  3890 ;;      Locals:         0       0       0       0       0       0       0       0       0       0       0       0       
      +0       0       0       0       0
  3891 ;;      Temps:          0       0       0       0       0       0       0       0       0       0       0       0       
      +0       0       0       0       0
  3892 ;;      Totals:         2       0       0       0       0       0       0       0       0       0       0       0       
      +0       0       0       0       0
  3893 ;;Total ram usage:        2 bytes
  3894 ;; Hardware stack levels used:    1
  3895 ;; Hardware stack levels required when called:    5
  3896 ;; This function calls:
  3897 ;;		_lcd_putc
  3898 ;; This function is called by:
  3899 ;;		_main
  3900 ;;		_execute_part2_radar
  3901 ;; This function uses a non-reentrant model
  3902 ;;
  3903                           
  3904                           	psect	text22
  3905  001CBC                     __ptext22:
  3906                           	opt stack 0
  3907  001CBC                     _lcd_puts:
  3908                           	opt stack 25
  3909                           
  3910                           ;lcd_x8.c: 122: while (*s) {
  3911                           
  3912                           ; BSR set to: 0
  3913                           ;incstack = 0
  3914  001CBC  D015               	goto	l54
  3915  001CBE                     
  3916                           ;lcd_x8.c: 123: lcd_putc(*s);
  3917  001CBE  C00F  FFF6         	movff	lcd_puts@s,tblptrl
  3918  001CC2  C010  FFF7         	movff	lcd_puts@s+1,tblptrh
  3919  001CC6  0E00               	movlw	low (__smallconst shr (0+16))
  3920  001CC8  6EF8               	movwf	tblptru,c
  3921  001CCA  0E0F               	movlw	(high __ramtop+-1)
  3922  001CCC  64F7               	cpfsgt	tblptrh,c
  3923  001CCE  D003               	bra	u1347
  3924  001CD0  0008               	tblrd		*
  3925  001CD2  50F5               	movf	tablat,w,c
  3926  001CD4  D005               	bra	u1340
  3927  001CD6                     u1347:
  3928  001CD6  CFF6 FFE9          	movff	tblptrl,fsr0l
  3929  001CDA  CFF7 FFEA          	movff	tblptrh,fsr0h
  3930  001CDE  50EF               	movf	indf0,w,c
  3931  001CE0                     u1340:
  3932  001CE0  EC89  F00E         	call	_lcd_putc
  3933                           
  3934                           ;lcd_x8.c: 124: s++;
  3935  001CE4  4A0F               	infsnz	lcd_puts@s,f,c
  3936  001CE6  2A10               	incf	lcd_puts@s+1,f,c
  3937  001CE8                     l54:
  3938  001CE8  C00F  FFF6         	movff	lcd_puts@s,tblptrl
  3939  001CEC  C010  FFF7         	movff	lcd_puts@s+1,tblptrh
  3940  001CF0  0E00               	movlw	low (__smallconst shr (0+16))
  3941  001CF2  6EF8               	movwf	tblptru,c
  3942  001CF4  0E0F               	movlw	(high __ramtop+-1)
  3943  001CF6  64F7               	cpfsgt	tblptrh,c
  3944  001CF8  D003               	bra	u1357
  3945  001CFA  0008               	tblrd		*
  3946  001CFC  50F5               	movf	tablat,w,c
  3947  001CFE  D005               	bra	u1350
  3948  001D00                     u1357:
  3949  001D00  CFF6 FFE9          	movff	tblptrl,fsr0l
  3950  001D04  CFF7 FFEA          	movff	tblptrh,fsr0h
  3951  001D08  50EF               	movf	indf0,w,c
  3952  001D0A                     u1350:
  3953  001D0A  0900               	iorlw	0
  3954  001D0C  B4D8               	btfsc	status,2,c
  3955  001D0E  0012               	return	
  3956  001D10  D7D6               	goto	l55
  3957  001D12                     __end_of_lcd_puts:
  3958                           	opt stack 0
  3959                           tblptru	equ	0xFF8
  3960                           tblptrh	equ	0xFF7
  3961                           tblptrl	equ	0xFF6
  3962                           tablat	equ	0xFF5
  3963                           prodh	equ	0xFF4
  3964                           prodl	equ	0xFF3
  3965                           intcon	equ	0xFF2
  3966                           intcon2	equ	0xFF1
  3967                           indf0	equ	0xFEF
  3968                           postinc0	equ	0xFEE
  3969                           fsr0h	equ	0xFEA
  3970                           fsr0l	equ	0xFE9
  3971                           postdec1	equ	0xFE5
  3972                           fsr1l	equ	0xFE1
  3973                           indf2	equ	0xFDF
  3974                           postinc2	equ	0xFDE
  3975                           postdec2	equ	0xFDD
  3976                           fsr2h	equ	0xFDA
  3977                           fsr2l	equ	0xFD9
  3978                           status	equ	0xFD8
  3979                           
  3980 ;; *************** function _lcd_putc *****************
  3981 ;; Defined at:
  3982 ;;		line 107 in file "lcd_x8.c"
  3983 ;; Parameters:    Size  Location     Type
  3984 ;;  c               1    wreg     unsigned char 
  3985 ;; Auto vars:     Size  Location     Type
  3986 ;;  c               1   13[COMRAM] unsigned char 
  3987 ;; Return value:  Size  Location     Type
  3988 ;;                  1    wreg      void 
  3989 ;; Registers used:
  3990 ;;		wreg, status,2, status,0, cstack
  3991 ;; Tracked objects:
  3992 ;;		On entry : 0/0
  3993 ;;		On exit  : 0/0
  3994 ;;		Unchanged: 0/0
  3995 ;; Data sizes:     COMRAM   BANK0   BANK1   BANK2   BANK3   BANK4   BANK5   BANK6   BANK7   BANK8   BANK9  BANK10  BANK1
      +1  BANK12  BANK13  BANK14  BANK15
  3996 ;;      Params:         0       0       0       0       0       0       0       0       0       0       0       0       
      +0       0       0       0       0
  3997 ;;      Locals:         1       0       0       0       0       0       0       0       0       0       0       0       
      +0       0       0       0       0
  3998 ;;      Temps:          0       0       0       0       0       0       0       0       0       0       0       0       
      +0       0       0       0       0
  3999 ;;      Totals:         1       0       0       0       0       0       0       0       0       0       0       0       
      +0       0       0       0       0
  4000 ;;Total ram usage:        1 bytes
  4001 ;; Hardware stack levels used:    1
  4002 ;; Hardware stack levels required when called:    4
  4003 ;; This function calls:
  4004 ;;		_delay_ms
  4005 ;;		_lcd_gotoxy
  4006 ;;		_lcd_send_byte
  4007 ;; This function is called by:
  4008 ;;		_lcd_puts
  4009 ;;		_lcd_clear_line
  4010 ;;		_main
  4011 ;; This function uses a non-reentrant model
  4012 ;;
  4013                           
  4014                           	psect	text23
  4015  001D12                     __ptext23:
  4016                           	opt stack 0
  4017  001D12                     _lcd_putc:
  4018                           	opt stack 25
  4019                           
  4020                           ;incstack = 0
  4021                           ;lcd_putc@c stored from wreg
  4022  001D12  6E0E               	movwf	lcd_putc@c,c
  4023                           
  4024                           ;lcd_x8.c: 108: switch (c) {
  4025  001D14  D01E               	goto	l45
  4026  001D16  0E01               	movlw	1
  4027  001D18  6E09               	movwf	lcd_send_byte@n,c
  4028  001D1A  0E00               	movlw	0
  4029  001D1C  EC82  F00F         	call	_lcd_send_byte
  4030                           
  4031                           ;lcd_x8.c: 110: delay_ms(2);
  4032  001D20  0E00               	movlw	0
  4033  001D22  6E02               	movwf	delay_ms@n+1,c
  4034  001D24  0E02               	movlw	2
  4035  001D26  6E01               	movwf	delay_ms@n,c
  4036  001D28  ECEA  F010         	call	_delay_ms	;wreg free
  4037                           
  4038                           ;lcd_x8.c: 111: break;
  4039  001D2C  0012               	return	
  4040  001D2E  0E02               	movlw	2
  4041  001D30  6E0B               	movwf	lcd_gotoxy@y,c
  4042  001D32  0E01               	movlw	1
  4043  001D34  ECE9  F00F         	call	_lcd_gotoxy
  4044                           
  4045                           ;lcd_x8.c: 113: break;
  4046  001D38  0012               	return	
  4047  001D3A  0E10               	movlw	16
  4048  001D3C  6E09               	movwf	lcd_send_byte@n,c
  4049  001D3E  0E00               	movlw	0
  4050  001D40  EC82  F00F         	call	_lcd_send_byte
  4051                           
  4052                           ;lcd_x8.c: 115: break;
  4053  001D44  0012               	return	
  4054  001D46  C00E  F009         	movff	lcd_putc@c,lcd_send_byte@n
  4055  001D4A  0E01               	movlw	1
  4056  001D4C  EC82  F00F         	call	_lcd_send_byte
  4057                           
  4058                           ;lcd_x8.c: 118: }
  4059                           
  4060                           ;lcd_x8.c: 117: break;
  4061  001D50  0012               	return	
  4062  001D52                     l45:
  4063  001D52  500E               	movf	lcd_putc@c,w,c
  4064                           
  4065                           ; Switch size 1, requested type "space"
  4066                           ; Number of cases is 3, Range of values is 8 to 12
  4067                           ; switch strategies available:
  4068                           ; Name         Instructions Cycles
  4069                           ; simple_byte           10     6 (average)
  4070                           ;	Chosen strategy is simple_byte
  4071  001D54  0A08               	xorlw	8	; case 8
  4072  001D56  B4D8               	btfsc	status,2,c
  4073  001D58  D7F0               	goto	l49
  4074  001D5A  0A02               	xorlw	2	; case 10
  4075  001D5C  B4D8               	btfsc	status,2,c
  4076  001D5E  D7E7               	goto	l48
  4077  001D60  0A06               	xorlw	6	; case 12
  4078  001D62  B4D8               	btfsc	status,2,c
  4079  001D64  D7D8               	goto	l46
  4080  001D66  D7EF               	goto	l50
  4081  001D68                     __end_of_lcd_putc:
  4082                           	opt stack 0
  4083                           tblptru	equ	0xFF8
  4084                           tblptrh	equ	0xFF7
  4085                           tblptrl	equ	0xFF6
  4086                           tablat	equ	0xFF5
  4087                           prodh	equ	0xFF4
  4088                           prodl	equ	0xFF3
  4089                           intcon	equ	0xFF2
  4090                           intcon2	equ	0xFF1
  4091                           indf0	equ	0xFEF
  4092                           postinc0	equ	0xFEE
  4093                           fsr0h	equ	0xFEA
  4094                           fsr0l	equ	0xFE9
  4095                           postdec1	equ	0xFE5
  4096                           fsr1l	equ	0xFE1
  4097                           indf2	equ	0xFDF
  4098                           postinc2	equ	0xFDE
  4099                           postdec2	equ	0xFDD
  4100                           fsr2h	equ	0xFDA
  4101                           fsr2l	equ	0xFD9
  4102                           status	equ	0xFD8
  4103                           
  4104 ;; *************** function _lcd_gotoxy *****************
  4105 ;; Defined at:
  4106 ;;		line 90 in file "lcd_x8.c"
  4107 ;; Parameters:    Size  Location     Type
  4108 ;;  x               1    wreg     unsigned char 
  4109 ;;  y               1   10[COMRAM] unsigned char 
  4110 ;; Auto vars:     Size  Location     Type
  4111 ;;  x               1   11[COMRAM] unsigned char 
  4112 ;;  address         1   12[COMRAM] unsigned char 
  4113 ;; Return value:  Size  Location     Type
  4114 ;;                  1    wreg      void 
  4115 ;; Registers used:
  4116 ;;		wreg, status,2, status,0, cstack
  4117 ;; Tracked objects:
  4118 ;;		On entry : 0/0
  4119 ;;		On exit  : 0/0
  4120 ;;		Unchanged: 0/0
  4121 ;; Data sizes:     COMRAM   BANK0   BANK1   BANK2   BANK3   BANK4   BANK5   BANK6   BANK7   BANK8   BANK9  BANK10  BANK1
      +1  BANK12  BANK13  BANK14  BANK15
  4122 ;;      Params:         1       0       0       0       0       0       0       0       0       0       0       0       
      +0       0       0       0       0
  4123 ;;      Locals:         2       0       0       0       0       0       0       0       0       0       0       0       
      +0       0       0       0       0
  4124 ;;      Temps:          0       0       0       0       0       0       0       0       0       0       0       0       
      +0       0       0       0       0
  4125 ;;      Totals:         3       0       0       0       0       0       0       0       0       0       0       0       
      +0       0       0       0       0
  4126 ;;Total ram usage:        3 bytes
  4127 ;; Hardware stack levels used:    1
  4128 ;; Hardware stack levels required when called:    3
  4129 ;; This function calls:
  4130 ;;		_lcd_send_byte
  4131 ;; This function is called by:
  4132 ;;		_lcd_putc
  4133 ;;		_lcd_clear_line
  4134 ;;		_main
  4135 ;;		_execute_part2_radar
  4136 ;; This function uses a non-reentrant model
  4137 ;;
  4138                           
  4139                           	psect	text24
  4140  001FD2                     __ptext24:
  4141                           	opt stack 0
  4142  001FD2                     _lcd_gotoxy:
  4143                           	opt stack 25
  4144                           
  4145                           ;incstack = 0
  4146                           ;lcd_gotoxy@x stored from wreg
  4147  001FD2  6E0C               	movwf	lcd_gotoxy@x,c
  4148                           
  4149                           ;lcd_x8.c: 91: unsigned char address;
  4150                           ;lcd_x8.c: 93: switch (y) {
  4151  001FD4  D009               	goto	l36
  4152  001FD6  0E80               	movlw	128
  4153  001FD8  D005               	goto	L3
  4154  001FDA  0EC0               	movlw	192
  4155  001FDC  D003               	goto	L3
  4156  001FDE  0E90               	movlw	144
  4157  001FE0  D001               	goto	L3
  4158  001FE2  0ED0               	movlw	208
  4159  001FE4                     L3:
  4160  001FE4  6E0D               	movwf	lcd_gotoxy@address,c
  4161                           
  4162                           ;lcd_x8.c: 102: }
  4163                           
  4164                           ;lcd_x8.c: 101: break;
  4165  001FE6  D00D               	goto	l38
  4166  001FE8                     l36:
  4167  001FE8  500B               	movf	lcd_gotoxy@y,w,c
  4168                           
  4169                           ; Switch size 1, requested type "space"
  4170                           ; Number of cases is 4, Range of values is 0 to 3
  4171                           ; switch strategies available:
  4172                           ; Name         Instructions Cycles
  4173                           ; simple_byte           13     7 (average)
  4174                           ;	Chosen strategy is simple_byte
  4175  001FEA  0A00               	xorlw	0	; case 0
  4176  001FEC  B4D8               	btfsc	status,2,c
  4177  001FEE  D7F3               	goto	l37
  4178  001FF0  0A01               	xorlw	1	; case 1
  4179  001FF2  B4D8               	btfsc	status,2,c
  4180  001FF4  D7F2               	goto	l39
  4181  001FF6  0A03               	xorlw	3	; case 2
  4182  001FF8  B4D8               	btfsc	status,2,c
  4183  001FFA  D7F1               	goto	l40
  4184  001FFC  0A01               	xorlw	1	; case 3
  4185  001FFE  B4D8               	btfsc	status,2,c
  4186  002000  D7F0               	goto	l41
  4187  002002                     l38:
  4188                           
  4189                           ;lcd_x8.c: 103: address += x;
  4190  002002  500C               	movf	lcd_gotoxy@x,w,c
  4191  002004  260D               	addwf	lcd_gotoxy@address,f,c
  4192                           
  4193                           ;lcd_x8.c: 104: lcd_send_byte(0, (unsigned char) (0x80 | address));
  4194  002006  500D               	movf	lcd_gotoxy@address,w,c
  4195  002008  0980               	iorlw	128
  4196  00200A  6E09               	movwf	lcd_send_byte@n,c
  4197  00200C  0E00               	movlw	0
  4198  00200E  EC82  F00F         	call	_lcd_send_byte
  4199  002012  0012               	return		;funcret
  4200  002014                     __end_of_lcd_gotoxy:
  4201                           	opt stack 0
  4202                           tblptru	equ	0xFF8
  4203                           tblptrh	equ	0xFF7
  4204                           tblptrl	equ	0xFF6
  4205                           tablat	equ	0xFF5
  4206                           prodh	equ	0xFF4
  4207                           prodl	equ	0xFF3
  4208                           intcon	equ	0xFF2
  4209                           intcon2	equ	0xFF1
  4210                           indf0	equ	0xFEF
  4211                           postinc0	equ	0xFEE
  4212                           fsr0h	equ	0xFEA
  4213                           fsr0l	equ	0xFE9
  4214                           postdec1	equ	0xFE5
  4215                           fsr1l	equ	0xFE1
  4216                           indf2	equ	0xFDF
  4217                           postinc2	equ	0xFDE
  4218                           postdec2	equ	0xFDD
  4219                           fsr2h	equ	0xFDA
  4220                           fsr2l	equ	0xFD9
  4221                           status	equ	0xFD8
  4222                           
  4223 ;; *************** function _lcd_send_byte *****************
  4224 ;; Defined at:
  4225 ;;		line 39 in file "lcd_x8.c"
  4226 ;; Parameters:    Size  Location     Type
  4227 ;;  cm_data         1    wreg     unsigned char 
  4228 ;;  n               1    8[COMRAM] unsigned char 
  4229 ;; Auto vars:     Size  Location     Type
  4230 ;;  cm_data         1    9[COMRAM] unsigned char 
  4231 ;; Return value:  Size  Location     Type
  4232 ;;                  1    wreg      void 
  4233 ;; Registers used:
  4234 ;;		wreg, status,2, status,0, cstack
  4235 ;; Tracked objects:
  4236 ;;		On entry : 0/0
  4237 ;;		On exit  : 0/0
  4238 ;;		Unchanged: 0/0
  4239 ;; Data sizes:     COMRAM   BANK0   BANK1   BANK2   BANK3   BANK4   BANK5   BANK6   BANK7   BANK8   BANK9  BANK10  BANK1
      +1  BANK12  BANK13  BANK14  BANK15
  4240 ;;      Params:         1       0       0       0       0       0       0       0       0       0       0       0       
      +0       0       0       0       0
  4241 ;;      Locals:         1       0       0       0       0       0       0       0       0       0       0       0       
      +0       0       0       0       0
  4242 ;;      Temps:          0       0       0       0       0       0       0       0       0       0       0       0       
      +0       0       0       0       0
  4243 ;;      Totals:         2       0       0       0       0       0       0       0       0       0       0       0       
      +0       0       0       0       0
  4244 ;;Total ram usage:        2 bytes
  4245 ;; Hardware stack levels used:    1
  4246 ;; Hardware stack levels required when called:    2
  4247 ;; This function calls:
  4248 ;;		_delay_cycles
  4249 ;;		_delay_ms
  4250 ;;		_lcd_send_nibble
  4251 ;; This function is called by:
  4252 ;;		_lcd_init
  4253 ;;		_lcd_gotoxy
  4254 ;;		_lcd_putc
  4255 ;;		_Lcd_Shift_Right
  4256 ;;		_Lcd_Shift_Left
  4257 ;; This function uses a non-reentrant model
  4258 ;;
  4259                           
  4260                           	psect	text25
  4261  001F04                     __ptext25:
  4262                           	opt stack 0
  4263  001F04                     _lcd_send_byte:
  4264                           	opt stack 26
  4265                           
  4266                           ;incstack = 0
  4267                           ;lcd_send_byte@cm_data stored from wreg
  4268  001F04  6E0A               	movwf	lcd_send_byte@cm_data,c
  4269                           
  4270                           ;lcd_x8.c: 43: lcd.rs = cm_data;
  4271  001F06  B00A               	btfsc	lcd_send_byte@cm_data,0,c
  4272  001F08  D002               	bra	u995
  4273  001F0A  9283               	bcf	3971,1,c
  4274  001F0C  D001               	bra	u996
  4275  001F0E                     u995:
  4276  001F0E  8283               	bsf	3971,1,c
  4277  001F10                     u996:
  4278                           
  4279                           ;lcd_x8.c: 44: delay_cycles(1);
  4280  001F10  0E01               	movlw	1
  4281  001F12  EC94  F010         	call	_delay_cycles
  4282                           
  4283                           ;lcd_x8.c: 46: delay_cycles(1);
  4284  001F16  0E01               	movlw	1
  4285  001F18  EC94  F010         	call	_delay_cycles
  4286                           
  4287                           ;lcd_x8.c: 47: lcd.enable = 0;
  4288  001F1C  9683               	bcf	3971,3,c
  4289                           
  4290                           ;lcd_x8.c: 48: lcd_send_nibble(n >> 4);
  4291  001F1E  3809               	swapf	lcd_send_byte@n,w,c
  4292  001F20  0B0F               	andlw	15
  4293  001F22  EC21  F011         	call	_lcd_send_nibble
  4294                           
  4295                           ;lcd_x8.c: 49: lcd_send_nibble(n & 0x0f);
  4296  001F26  5009               	movf	lcd_send_byte@n,w,c
  4297  001F28  0B0F               	andlw	15
  4298  001F2A  EC21  F011         	call	_lcd_send_nibble
  4299                           
  4300                           ;lcd_x8.c: 50: if (cm_data) _delaywdt((unsigned long)((200)*(4000000UL/4000000.0)));
  4301  001F2E  500A               	movf	lcd_send_byte@cm_data,w,c
  4302  001F30  B4D8               	btfsc	status,2,c
  4303  001F32  D005               	goto	l24
  4304  001F34  0E32               	movlw	50
  4305  001F36                     u1937:
  4306  001F36  0004               	clrwdt	
  4307  001F38  2EE8               	decfsz	wreg,f,c
  4308  001F3A  D7FD               	bra	u1937
  4309  001F3C  0012               	return	
  4310  001F3E                     l24:
  4311                           
  4312                           ;lcd_x8.c: 51: else
  4313                           ;lcd_x8.c: 52: delay_ms(2);
  4314  001F3E  0E00               	movlw	0
  4315  001F40  6E02               	movwf	delay_ms@n+1,c
  4316  001F42  0E02               	movlw	2
  4317  001F44  6E01               	movwf	delay_ms@n,c
  4318  001F46  ECEA  F010         	call	_delay_ms	;wreg free
  4319  001F4A  0012               	return	
  4320  001F4C                     __end_of_lcd_send_byte:
  4321                           	opt stack 0
  4322                           tblptru	equ	0xFF8
  4323                           tblptrh	equ	0xFF7
  4324                           tblptrl	equ	0xFF6
  4325                           tablat	equ	0xFF5
  4326                           prodh	equ	0xFF4
  4327                           prodl	equ	0xFF3
  4328                           intcon	equ	0xFF2
  4329                           intcon2	equ	0xFF1
  4330                           indf0	equ	0xFEF
  4331                           postinc0	equ	0xFEE
  4332                           fsr0h	equ	0xFEA
  4333                           fsr0l	equ	0xFE9
  4334                           wreg	equ	0xFE8
  4335                           postdec1	equ	0xFE5
  4336                           fsr1l	equ	0xFE1
  4337                           indf2	equ	0xFDF
  4338                           postinc2	equ	0xFDE
  4339                           postdec2	equ	0xFDD
  4340                           fsr2h	equ	0xFDA
  4341                           fsr2l	equ	0xFD9
  4342                           status	equ	0xFD8
  4343                           
  4344 ;; *************** function _lcd_send_nibble *****************
  4345 ;; Defined at:
  4346 ;;		line 29 in file "lcd_x8.c"
  4347 ;; Parameters:    Size  Location     Type
  4348 ;;  n               1    wreg     unsigned char 
  4349 ;; Auto vars:     Size  Location     Type
  4350 ;;  n               1    7[COMRAM] unsigned char 
  4351 ;; Return value:  Size  Location     Type
  4352 ;;                  1    wreg      void 
  4353 ;; Registers used:
  4354 ;;		wreg, status,2, status,0, cstack
  4355 ;; Tracked objects:
  4356 ;;		On entry : 0/0
  4357 ;;		On exit  : 0/0
  4358 ;;		Unchanged: 0/0
  4359 ;; Data sizes:     COMRAM   BANK0   BANK1   BANK2   BANK3   BANK4   BANK5   BANK6   BANK7   BANK8   BANK9  BANK10  BANK1
      +1  BANK12  BANK13  BANK14  BANK15
  4360 ;;      Params:         0       0       0       0       0       0       0       0       0       0       0       0       
      +0       0       0       0       0
  4361 ;;      Locals:         1       0       0       0       0       0       0       0       0       0       0       0       
      +0       0       0       0       0
  4362 ;;      Temps:          1       0       0       0       0       0       0       0       0       0       0       0       
      +0       0       0       0       0
  4363 ;;      Totals:         2       0       0       0       0       0       0       0       0       0       0       0       
      +0       0       0       0       0
  4364 ;;Total ram usage:        2 bytes
  4365 ;; Hardware stack levels used:    1
  4366 ;; Hardware stack levels required when called:    1
  4367 ;; This function calls:
  4368 ;;		_delay_cycles
  4369 ;; This function is called by:
  4370 ;;		_lcd_send_byte
  4371 ;;		_lcd_init
  4372 ;; This function uses a non-reentrant model
  4373 ;;
  4374                           
  4375                           	psect	text26
  4376  002242                     __ptext26:
  4377                           	opt stack 0
  4378  002242                     _lcd_send_nibble:
  4379                           	opt stack 26
  4380                           
  4381                           ;incstack = 0
  4382                           ;lcd_send_nibble@n stored from wreg
  4383  002242  6E08               	movwf	lcd_send_nibble@n,c
  4384                           
  4385                           ;lcd_x8.c: 31: lcd.data = n;
  4386  002244  C008  F007         	movff	lcd_send_nibble@n,??_lcd_send_nibble
  4387  002248  3A07               	swapf	??_lcd_send_nibble,f,c
  4388  00224A  5083               	movf	3971,w,c
  4389  00224C  1807               	xorwf	??_lcd_send_nibble,w,c
  4390  00224E  0B0F               	andlw	-241
  4391  002250  1807               	xorwf	??_lcd_send_nibble,w,c
  4392  002252  6E83               	movwf	3971,c
  4393                           
  4394                           ;lcd_x8.c: 33: delay_cycles(1);
  4395  002254  0E01               	movlw	1
  4396  002256  EC94  F010         	call	_delay_cycles
  4397                           
  4398                           ;lcd_x8.c: 34: lcd.enable = 1;
  4399  00225A  8683               	bsf	3971,3,c
  4400                           
  4401                           ;lcd_x8.c: 35: _delaywdt((unsigned long)((2)*(4000000UL/4000000.0)));
  4402  00225C  0004               	clrwdt	
  4403  00225E  F000               	nop		;2 cycle nop
  4404                           
  4405                           ;lcd_x8.c: 36: lcd.enable = 0;
  4406  002260  9683               	bcf	3971,3,c
  4407  002262  0012               	return		;funcret
  4408  002264                     __end_of_lcd_send_nibble:
  4409                           	opt stack 0
  4410                           tblptru	equ	0xFF8
  4411                           tblptrh	equ	0xFF7
  4412                           tblptrl	equ	0xFF6
  4413                           tablat	equ	0xFF5
  4414                           prodh	equ	0xFF4
  4415                           prodl	equ	0xFF3
  4416                           intcon	equ	0xFF2
  4417                           intcon2	equ	0xFF1
  4418                           indf0	equ	0xFEF
  4419                           postinc0	equ	0xFEE
  4420                           fsr0h	equ	0xFEA
  4421                           fsr0l	equ	0xFE9
  4422                           wreg	equ	0xFE8
  4423                           postdec1	equ	0xFE5
  4424                           fsr1l	equ	0xFE1
  4425                           indf2	equ	0xFDF
  4426                           postinc2	equ	0xFDE
  4427                           postdec2	equ	0xFDD
  4428                           fsr2h	equ	0xFDA
  4429                           fsr2l	equ	0xFD9
  4430                           status	equ	0xFD8
  4431                           
  4432 ;; *************** function _delay_cycles *****************
  4433 ;; Defined at:
  4434 ;;		line 20 in file "lcd_x8.c"
  4435 ;; Parameters:    Size  Location     Type
  4436 ;;  n               1    wreg     unsigned char 
  4437 ;; Auto vars:     Size  Location     Type
  4438 ;;  n               1    3[COMRAM] unsigned char 
  4439 ;;  x               2    4[COMRAM] int 
  4440 ;; Return value:  Size  Location     Type
  4441 ;;                  1    wreg      void 
  4442 ;; Registers used:
  4443 ;;		wreg, status,2, status,0
  4444 ;; Tracked objects:
  4445 ;;		On entry : 0/0
  4446 ;;		On exit  : 0/0
  4447 ;;		Unchanged: 0/0
  4448 ;; Data sizes:     COMRAM   BANK0   BANK1   BANK2   BANK3   BANK4   BANK5   BANK6   BANK7   BANK8   BANK9  BANK10  BANK1
      +1  BANK12  BANK13  BANK14  BANK15
  4449 ;;      Params:         0       0       0       0       0       0       0       0       0       0       0       0       
      +0       0       0       0       0
  4450 ;;      Locals:         3       0       0       0       0       0       0       0       0       0       0       0       
      +0       0       0       0       0
  4451 ;;      Temps:          3       0       0       0       0       0       0       0       0       0       0       0       
      +0       0       0       0       0
  4452 ;;      Totals:         6       0       0       0       0       0       0       0       0       0       0       0       
      +0       0       0       0       0
  4453 ;;Total ram usage:        6 bytes
  4454 ;; Hardware stack levels used:    1
  4455 ;; This function calls:
  4456 ;;		Nothing
  4457 ;; This function is called by:
  4458 ;;		_lcd_send_nibble
  4459 ;;		_lcd_send_byte
  4460 ;; This function uses a non-reentrant model
  4461 ;;
  4462                           
  4463                           	psect	text27
  4464  002128                     __ptext27:
  4465                           	opt stack 0
  4466  002128                     _delay_cycles:
  4467                           	opt stack 26
  4468                           
  4469                           ;incstack = 0
  4470                           ;delay_cycles@n stored from wreg
  4471  002128  6E04               	movwf	delay_cycles@n,c
  4472                           
  4473                           ;lcd_x8.c: 21: int x;
  4474                           ;lcd_x8.c: 22: for (x = 0; x <= n; x++) {
  4475  00212A  0E00               	movlw	0
  4476  00212C  6E06               	movwf	delay_cycles@x+1,c
  4477  00212E  0E00               	movlw	0
  4478  002130  6E05               	movwf	delay_cycles@x,c
  4479  002132  D003               	goto	l15
  4480  002134                     l16:
  4481  002134  0004               	clrwdt		;# 
  4482  002136  4A05               	infsnz	delay_cycles@x,f,c
  4483  002138  2A06               	incf	delay_cycles@x+1,f,c
  4484  00213A                     l15:
  4485  00213A  5004               	movf	delay_cycles@n,w,c
  4486  00213C  6E01               	movwf	??_delay_cycles& (0+255),c
  4487  00213E  6A02               	clrf	(??_delay_cycles+1)& (0+255),c
  4488  002140  5005               	movf	delay_cycles@x,w,c
  4489  002142  5C01               	subwf	??_delay_cycles,w,c
  4490  002144  5002               	movf	??_delay_cycles+1,w,c
  4491  002146  0A80               	xorlw	128
  4492  002148  6E03               	movwf	(??_delay_cycles+2)& (0+255),c
  4493  00214A  5006               	movf	delay_cycles@x+1,w,c
  4494  00214C  0A80               	xorlw	128
  4495  00214E  5803               	subwfb	(??_delay_cycles+2)& (0+255),w,c
  4496  002150  A0D8               	btfss	status,0,c
  4497  002152  0012               	return	
  4498  002154  D7EF               	goto	l16
  4499  002156                     __end_of_delay_cycles:
  4500                           	opt stack 0
  4501                           tblptru	equ	0xFF8
  4502                           tblptrh	equ	0xFF7
  4503                           tblptrl	equ	0xFF6
  4504                           tablat	equ	0xFF5
  4505                           prodh	equ	0xFF4
  4506                           prodl	equ	0xFF3
  4507                           intcon	equ	0xFF2
  4508                           intcon2	equ	0xFF1
  4509                           indf0	equ	0xFEF
  4510                           postinc0	equ	0xFEE
  4511                           fsr0h	equ	0xFEA
  4512                           fsr0l	equ	0xFE9
  4513                           wreg	equ	0xFE8
  4514                           postdec1	equ	0xFE5
  4515                           fsr1l	equ	0xFE1
  4516                           indf2	equ	0xFDF
  4517                           postinc2	equ	0xFDE
  4518                           postdec2	equ	0xFDD
  4519                           fsr2h	equ	0xFDA
  4520                           fsr2l	equ	0xFD9
  4521                           status	equ	0xFD8
  4522                           
  4523 ;; *************** function _hcsr04_read_filtered *****************
  4524 ;; Defined at:
  4525 ;;		line 516 in file "ourProject.c"
  4526 ;; Parameters:    Size  Location     Type
  4527 ;;  distance_cm     2   14[COMRAM] PTR unsigned int 
  4528 ;;		 -> execute_part2_radar@distance_cm(2), 
  4529 ;; Auto vars:     Size  Location     Type
  4530 ;;  samples         6   28[COMRAM] unsigned int [3]
  4531 ;;  reading         2   24[COMRAM] unsigned int 
  4532 ;;  upper_delta     2   22[COMRAM] unsigned int 
  4533 ;;  lower_delta     2   20[COMRAM] unsigned int 
  4534 ;;  valid           1   27[COMRAM] unsigned char 
  4535 ;;  i               1   26[COMRAM] unsigned char 
  4536 ;; Return value:  Size  Location     Type
  4537 ;;                  1    wreg      unsigned char 
  4538 ;; Registers used:
  4539 ;;		wreg, fsr1l, fsr1h, fsr2l, fsr2h, status,2, status,0, prodl, prodh, cstack
  4540 ;; Tracked objects:
  4541 ;;		On entry : 0/0
  4542 ;;		On exit  : 0/0
  4543 ;;		Unchanged: 0/0
  4544 ;; Data sizes:     COMRAM   BANK0   BANK1   BANK2   BANK3   BANK4   BANK5   BANK6   BANK7   BANK8   BANK9  BANK10  BANK1
      +1  BANK12  BANK13  BANK14  BANK15
  4545 ;;      Params:         2       0       0       0       0       0       0       0       0       0       0       0       
      +0       0       0       0       0
  4546 ;;      Locals:        14       0       0       0       0       0       0       0       0       0       0       0       
      +0       0       0       0       0
  4547 ;;      Temps:          4       0       0       0       0       0       0       0       0       0       0       0       
      +0       0       0       0       0
  4548 ;;      Totals:        20       0       0       0       0       0       0       0       0       0       0       0       
      +0       0       0       0       0
  4549 ;;Total ram usage:       20 bytes
  4550 ;; Hardware stack levels used:    1
  4551 ;; Hardware stack levels required when called:    3
  4552 ;; This function calls:
  4553 ;;		_delay_ms_var
  4554 ;;		_hcsr04_read_once
  4555 ;;		_sort_samples
  4556 ;; This function is called by:
  4557 ;;		_execute_part2_radar
  4558 ;; This function uses a non-reentrant model
  4559 ;;
  4560                           
  4561                           	psect	text28
  4562  001590                     __ptext28:
  4563                           	opt stack 0
  4564  001590                     _hcsr04_read_filtered:
  4565                           	opt stack 26
  4566                           
  4567                           ;ourProject.c: 517: unsigned int samples[3];
  4568                           ;ourProject.c: 518: unsigned int reading;
  4569                           ;ourProject.c: 519: unsigned int lower_delta;
  4570                           ;ourProject.c: 520: unsigned int upper_delta;
  4571                           ;ourProject.c: 521: unsigned char valid;
  4572                           ;ourProject.c: 522: unsigned char i;
  4573                           ;ourProject.c: 524: valid = 0;
  4574                           
  4575                           ;incstack = 0
  4576  001590  0E00               	movlw	0
  4577  001592  6E1C               	movwf	hcsr04_read_filtered@valid,c
  4578                           
  4579                           ;ourProject.c: 526: for(i = 0; i < 3U; i++) {
  4580  001594  0E00               	movlw	0
  4581  001596  6E1B               	movwf	hcsr04_read_filtered@i,c
  4582  001598                     l2405:
  4583  001598  0E02               	movlw	2
  4584  00159A  641B               	cpfsgt	hcsr04_read_filtered@i,c
  4585  00159C  D001               	goto	l401
  4586  00159E  D01E               	goto	u1580
  4587  0015A0                     l401:
  4588                           
  4589                           ;ourProject.c: 527: if(hcsr04_read_once(&reading)) {
  4590  0015A0  0E19               	movlw	low hcsr04_read_filtered@reading
  4591  0015A2  6E09               	movwf	hcsr04_read_once@distance_cm,c
  4592  0015A4  0E00               	movlw	high hcsr04_read_filtered@reading
  4593  0015A6  6E0A               	movwf	hcsr04_read_once@distance_cm+1,c
  4594  0015A8  EC70  F00C         	call	_hcsr04_read_once	;wreg free
  4595  0015AC  0900               	iorlw	0
  4596  0015AE  B4D8               	btfsc	status,2,c
  4597  0015B0  D00D               	goto	l403
  4598                           
  4599                           ;ourProject.c: 528: samples[valid] = reading;
  4600  0015B2  501C               	movf	hcsr04_read_filtered@valid,w,c
  4601  0015B4  0D02               	mullw	2
  4602  0015B6  0E1D               	movlw	low hcsr04_read_filtered@samples
  4603  0015B8  24F3               	addwf	prodl,w,c
  4604  0015BA  6ED9               	movwf	fsr2l,c
  4605  0015BC  0E00               	movlw	high hcsr04_read_filtered@samples
  4606  0015BE  20F4               	addwfc	prodh,w,c
  4607  0015C0  6EDA               	movwf	fsr2h,c
  4608  0015C2  C019  FFDE         	movff	hcsr04_read_filtered@reading,postinc2
  4609  0015C6  C01A  FFDD         	movff	hcsr04_read_filtered@reading+1,postdec2
  4610                           
  4611                           ;ourProject.c: 529: valid++;
  4612  0015CA  2A1C               	incf	hcsr04_read_filtered@valid,f,c
  4613  0015CC                     l403:
  4614                           
  4615                           ;ourProject.c: 530: }
  4616                           ;ourProject.c: 531: delay_ms_var(60U);
  4617  0015CC  0E00               	movlw	0
  4618  0015CE  6E02               	movwf	delay_ms_var@ms+1,c
  4619  0015D0  0E3C               	movlw	60
  4620  0015D2  6E01               	movwf	delay_ms_var@ms,c
  4621  0015D4  EC60  F011         	call	_delay_ms_var	;wreg free
  4622  0015D8  2A1B               	incf	hcsr04_read_filtered@i,f,c
  4623  0015DA  D7DE               	goto	l2405
  4624  0015DC                     u1580:
  4625                           
  4626                           ;ourProject.c: 532: }
  4627                           ;ourProject.c: 534: if(valid < 3U) {
  4628  0015DC  0E03               	movlw	3
  4629  0015DE  601C               	cpfslt	hcsr04_read_filtered@valid,c
  4630  0015E0  D039               	goto	l404
  4631                           
  4632                           ;ourProject.c: 535: if(valid == 2) {
  4633  0015E2  0E02               	movlw	2
  4634  0015E4  181C               	xorwf	hcsr04_read_filtered@valid,w,c
  4635  0015E6  A4D8               	btfss	status,2,c
  4636  0015E8  D033               	goto	l406
  4637                           
  4638                           ;ourProject.c: 536: sort_samples(samples, valid);
  4639  0015EA  0E1D               	movlw	low hcsr04_read_filtered@samples
  4640  0015EC  6E01               	movwf	sort_samples@samples,c
  4641  0015EE  0E00               	movlw	high hcsr04_read_filtered@samples
  4642  0015F0  6E02               	movwf	sort_samples@samples+1,c
  4643  0015F2  C01C  F003         	movff	hcsr04_read_filtered@valid,sort_samples@count
  4644  0015F6  ECEA  F00C         	call	_sort_samples	;wreg free
  4645                           
  4646                           ;ourProject.c: 537: if((samples[1] - samples[0]) <= 8U) {
  4647  0015FA  C01D  F011         	movff	hcsr04_read_filtered@samples,??_hcsr04_read_filtered
  4648  0015FE  C01E  F012         	movff	hcsr04_read_filtered@samples+1,??_hcsr04_read_filtered+1
  4649  001602  1E11               	comf	??_hcsr04_read_filtered,f,c
  4650  001604  1E12               	comf	??_hcsr04_read_filtered+1,f,c
  4651  001606  4A11               	infsnz	??_hcsr04_read_filtered,f,c
  4652  001608  2A12               	incf	??_hcsr04_read_filtered+1,f,c
  4653  00160A  501F               	movf	hcsr04_read_filtered@samples+2,w,c
  4654  00160C  2611               	addwf	??_hcsr04_read_filtered,f,c
  4655  00160E  5020               	movf	hcsr04_read_filtered@samples+3,w,c
  4656  001610  2212               	addwfc	??_hcsr04_read_filtered+1,f,c
  4657  001612  5012               	movf	??_hcsr04_read_filtered+1,w,c
  4658  001614  E11D               	bnz	l2435
  4659  001616  0E09               	movlw	9
  4660  001618  5C11               	subwf	??_hcsr04_read_filtered,w,c
  4661  00161A  B0D8               	btfsc	status,0,c
  4662  00161C  D019               	goto	l406
  4663                           
  4664                           ;ourProject.c: 538: *distance_cm = (samples[0] + samples[1] + 1U) / 2U;
  4665  00161E  501D               	movf	hcsr04_read_filtered@samples,w,c
  4666  001620  241F               	addwf	hcsr04_read_filtered@samples+2,w,c
  4667  001622  6E11               	movwf	??_hcsr04_read_filtered& (0+255),c
  4668  001624  501E               	movf	hcsr04_read_filtered@samples+1,w,c
  4669  001626  2020               	addwfc	hcsr04_read_filtered@samples+3,w,c
  4670  001628  6E12               	movwf	(??_hcsr04_read_filtered+1)& (0+255),c
  4671  00162A  0E01               	movlw	1
  4672  00162C  2611               	addwf	??_hcsr04_read_filtered,f,c
  4673  00162E  0E00               	movlw	0
  4674  001630  2212               	addwfc	??_hcsr04_read_filtered+1,f,c
  4675  001632  90D8               	bcf	status,0,c
  4676  001634  3012               	rrcf	??_hcsr04_read_filtered+1,w,c
  4677  001636  6E14               	movwf	(??_hcsr04_read_filtered+3)& (0+255),c
  4678  001638  3011               	rrcf	??_hcsr04_read_filtered,w,c
  4679  00163A  6E13               	movwf	(??_hcsr04_read_filtered+2)& (0+255),c
  4680  00163C  C00F  FFD9         	movff	hcsr04_read_filtered@distance_cm,fsr2l
  4681  001640  C010  FFDA         	movff	hcsr04_read_filtered@distance_cm+1,fsr2h
  4682  001644  C013  FFDE         	movff	??_hcsr04_read_filtered+2,postinc2
  4683  001648  C014  FFDD         	movff	??_hcsr04_read_filtered+3,postdec2
  4684                           
  4685                           ;ourProject.c: 539: return 1;
  4686  00164C  0E01               	movlw	1
  4687  00164E  0012               	return	
  4688  001650                     l406:
  4689  001650                     l2435:
  4690                           
  4691                           ;ourProject.c: 540: }
  4692                           ;ourProject.c: 541: }
  4693                           ;ourProject.c: 543: return 0;
  4694  001650  0E00               	movlw	0
  4695  001652  0012               	return	
  4696  001654                     l404:
  4697                           
  4698                           ;ourProject.c: 544: }
  4699                           ;ourProject.c: 546: sort_samples(samples, valid);
  4700  001654  0E1D               	movlw	low hcsr04_read_filtered@samples
  4701  001656  6E01               	movwf	sort_samples@samples,c
  4702  001658  0E00               	movlw	high hcsr04_read_filtered@samples
  4703  00165A  6E02               	movwf	sort_samples@samples+1,c
  4704  00165C  C01C  F003         	movff	hcsr04_read_filtered@valid,sort_samples@count
  4705  001660  ECEA  F00C         	call	_sort_samples	;wreg free
  4706                           
  4707                           ;ourProject.c: 548: if((samples[2] - samples[0]) > 8U) {
  4708  001664  C01D  F011         	movff	hcsr04_read_filtered@samples,??_hcsr04_read_filtered
  4709  001668  C01E  F012         	movff	hcsr04_read_filtered@samples+1,??_hcsr04_read_filtered+1
  4710  00166C  1E11               	comf	??_hcsr04_read_filtered,f,c
  4711  00166E  1E12               	comf	??_hcsr04_read_filtered+1,f,c
  4712  001670  4A11               	infsnz	??_hcsr04_read_filtered,f,c
  4713  001672  2A12               	incf	??_hcsr04_read_filtered+1,f,c
  4714  001674  5021               	movf	hcsr04_read_filtered@samples+4,w,c
  4715  001676  2611               	addwf	??_hcsr04_read_filtered,f,c
  4716  001678  5022               	movf	hcsr04_read_filtered@samples+5,w,c
  4717  00167A  2212               	addwfc	??_hcsr04_read_filtered+1,f,c
  4718  00167C  5012               	movf	??_hcsr04_read_filtered+1,w,c
  4719  00167E  E104               	bnz	u1620
  4720  001680  0E09               	movlw	9
  4721  001682  5C11               	subwf	??_hcsr04_read_filtered,w,c
  4722  001684  A0D8               	btfss	status,0,c
  4723  001686  D064               	goto	l408
  4724  001688                     u1620:
  4725                           
  4726                           ;ourProject.c: 549: lower_delta = samples[1] - samples[0];
  4727  001688  C01D  F011         	movff	hcsr04_read_filtered@samples,??_hcsr04_read_filtered
  4728  00168C  C01E  F012         	movff	hcsr04_read_filtered@samples+1,??_hcsr04_read_filtered+1
  4729  001690  1E11               	comf	??_hcsr04_read_filtered,f,c
  4730  001692  1E12               	comf	??_hcsr04_read_filtered+1,f,c
  4731  001694  4A11               	infsnz	??_hcsr04_read_filtered,f,c
  4732  001696  2A12               	incf	??_hcsr04_read_filtered+1,f,c
  4733  001698  501F               	movf	hcsr04_read_filtered@samples+2,w,c
  4734  00169A  2411               	addwf	??_hcsr04_read_filtered,w,c
  4735  00169C  6E15               	movwf	hcsr04_read_filtered@lower_delta,c
  4736  00169E  5020               	movf	hcsr04_read_filtered@samples+3,w,c
  4737  0016A0  2012               	addwfc	??_hcsr04_read_filtered+1,w,c
  4738  0016A2  6E16               	movwf	hcsr04_read_filtered@lower_delta+1,c
  4739                           
  4740                           ;ourProject.c: 550: upper_delta = samples[2] - samples[1];
  4741  0016A4  EE20  F01F         	lfsr	2,hcsr04_read_filtered@samples+2
  4742  0016A8  CFDE F011          	movff	postinc2,??_hcsr04_read_filtered
  4743  0016AC  CFDD F012          	movff	postdec2,??_hcsr04_read_filtered+1
  4744  0016B0  1E11               	comf	??_hcsr04_read_filtered,f,c
  4745  0016B2  1E12               	comf	??_hcsr04_read_filtered+1,f,c
  4746  0016B4  4A11               	infsnz	??_hcsr04_read_filtered,f,c
  4747  0016B6  2A12               	incf	??_hcsr04_read_filtered+1,f,c
  4748  0016B8  5021               	movf	hcsr04_read_filtered@samples+4,w,c
  4749  0016BA  2411               	addwf	??_hcsr04_read_filtered,w,c
  4750  0016BC  6E17               	movwf	hcsr04_read_filtered@upper_delta,c
  4751  0016BE  5022               	movf	hcsr04_read_filtered@samples+5,w,c
  4752  0016C0  2012               	addwfc	??_hcsr04_read_filtered+1,w,c
  4753  0016C2  6E18               	movwf	hcsr04_read_filtered@upper_delta+1,c
  4754                           
  4755                           ;ourProject.c: 552: if(lower_delta <= 8U && lower_delta <= upper_delta) {
  4756  0016C4  5016               	movf	hcsr04_read_filtered@lower_delta+1,w,c
  4757  0016C6  E123               	bnz	l2457
  4758  0016C8  0E09               	movlw	9
  4759  0016CA  5C15               	subwf	hcsr04_read_filtered@lower_delta,w,c
  4760  0016CC  B0D8               	btfsc	status,0,c
  4761  0016CE  D01F               	goto	l409
  4762  0016D0  5015               	movf	hcsr04_read_filtered@lower_delta,w,c
  4763  0016D2  5C17               	subwf	hcsr04_read_filtered@upper_delta,w,c
  4764  0016D4  5016               	movf	hcsr04_read_filtered@lower_delta+1,w,c
  4765  0016D6  5818               	subwfb	hcsr04_read_filtered@upper_delta+1,w,c
  4766  0016D8  A0D8               	btfss	status,0,c
  4767  0016DA  D019               	goto	l409
  4768                           
  4769                           ;ourProject.c: 553: *distance_cm = (samples[0] + samples[1] + 1U) / 2U;
  4770  0016DC  501D               	movf	hcsr04_read_filtered@samples,w,c
  4771  0016DE  241F               	addwf	hcsr04_read_filtered@samples+2,w,c
  4772  0016E0  6E11               	movwf	??_hcsr04_read_filtered& (0+255),c
  4773  0016E2  501E               	movf	hcsr04_read_filtered@samples+1,w,c
  4774  0016E4  2020               	addwfc	hcsr04_read_filtered@samples+3,w,c
  4775  0016E6  6E12               	movwf	(??_hcsr04_read_filtered+1)& (0+255),c
  4776  0016E8  0E01               	movlw	1
  4777  0016EA  2611               	addwf	??_hcsr04_read_filtered,f,c
  4778  0016EC  0E00               	movlw	0
  4779  0016EE  2212               	addwfc	??_hcsr04_read_filtered+1,f,c
  4780  0016F0  90D8               	bcf	status,0,c
  4781  0016F2  3012               	rrcf	??_hcsr04_read_filtered+1,w,c
  4782  0016F4  6E14               	movwf	(??_hcsr04_read_filtered+3)& (0+255),c
  4783  0016F6  3011               	rrcf	??_hcsr04_read_filtered,w,c
  4784  0016F8  6E13               	movwf	(??_hcsr04_read_filtered+2)& (0+255),c
  4785  0016FA  C00F  FFD9         	movff	hcsr04_read_filtered@distance_cm,fsr2l
  4786  0016FE  C010  FFDA         	movff	hcsr04_read_filtered@distance_cm+1,fsr2h
  4787  001702  C013  FFDE         	movff	??_hcsr04_read_filtered+2,postinc2
  4788  001706  C014  FFDD         	movff	??_hcsr04_read_filtered+3,postdec2
  4789                           
  4790                           ;ourProject.c: 554: return 1;
  4791  00170A  0E01               	movlw	1
  4792  00170C  0012               	return	
  4793  00170E                     l409:
  4794  00170E                     l2457:
  4795                           
  4796                           ;ourProject.c: 555: }
  4797                           ;ourProject.c: 557: if(upper_delta <= 8U) {
  4798  00170E  5018               	movf	hcsr04_read_filtered@upper_delta+1,w,c
  4799  001710  E11D               	bnz	l2465
  4800  001712  0E09               	movlw	9
  4801  001714  5C17               	subwf	hcsr04_read_filtered@upper_delta,w,c
  4802  001716  B0D8               	btfsc	status,0,c
  4803  001718  D019               	goto	l410
  4804                           
  4805                           ;ourProject.c: 558: *distance_cm = (samples[1] + samples[2] + 1U) / 2U;
  4806  00171A  5021               	movf	hcsr04_read_filtered@samples+4,w,c
  4807  00171C  241F               	addwf	hcsr04_read_filtered@samples+2,w,c
  4808  00171E  6E11               	movwf	??_hcsr04_read_filtered& (0+255),c
  4809  001720  5022               	movf	hcsr04_read_filtered@samples+5,w,c
  4810  001722  2020               	addwfc	hcsr04_read_filtered@samples+3,w,c
  4811  001724  6E12               	movwf	(??_hcsr04_read_filtered+1)& (0+255),c
  4812  001726  0E01               	movlw	1
  4813  001728  2611               	addwf	??_hcsr04_read_filtered,f,c
  4814  00172A  0E00               	movlw	0
  4815  00172C  2212               	addwfc	??_hcsr04_read_filtered+1,f,c
  4816  00172E  90D8               	bcf	status,0,c
  4817  001730  3012               	rrcf	??_hcsr04_read_filtered+1,w,c
  4818  001732  6E14               	movwf	(??_hcsr04_read_filtered+3)& (0+255),c
  4819  001734  3011               	rrcf	??_hcsr04_read_filtered,w,c
  4820  001736  6E13               	movwf	(??_hcsr04_read_filtered+2)& (0+255),c
  4821  001738  C00F  FFD9         	movff	hcsr04_read_filtered@distance_cm,fsr2l
  4822  00173C  C010  FFDA         	movff	hcsr04_read_filtered@distance_cm+1,fsr2h
  4823  001740  C013  FFDE         	movff	??_hcsr04_read_filtered+2,postinc2
  4824  001744  C014  FFDD         	movff	??_hcsr04_read_filtered+3,postdec2
  4825                           
  4826                           ;ourProject.c: 559: return 1;
  4827  001748  0E01               	movlw	1
  4828  00174A  0012               	return	
  4829  00174C                     l410:
  4830  00174C                     l2465:
  4831                           
  4832                           ;ourProject.c: 560: }
  4833                           ;ourProject.c: 562: return 0;
  4834  00174C  0E00               	movlw	0
  4835  00174E  0012               	return	
  4836  001750                     l408:
  4837                           
  4838                           ;ourProject.c: 563: }
  4839                           ;ourProject.c: 565: *distance_cm = samples[1];
  4840  001750  C00F  FFD9         	movff	hcsr04_read_filtered@distance_cm,fsr2l
  4841  001754  C010  FFDA         	movff	hcsr04_read_filtered@distance_cm+1,fsr2h
  4842  001758  C01F  FFDE         	movff	hcsr04_read_filtered@samples+2,postinc2
  4843  00175C  C020  FFDD         	movff	hcsr04_read_filtered@samples+3,postdec2
  4844                           
  4845                           ;ourProject.c: 566: return 1;
  4846  001760  0E01               	movlw	1
  4847  001762  0012               	return	
  4848  001764                     __end_of_hcsr04_read_filtered:
  4849                           	opt stack 0
  4850                           tblptru	equ	0xFF8
  4851                           tblptrh	equ	0xFF7
  4852                           tblptrl	equ	0xFF6
  4853                           tablat	equ	0xFF5
  4854                           prodh	equ	0xFF4
  4855                           prodl	equ	0xFF3
  4856                           intcon	equ	0xFF2
  4857                           intcon2	equ	0xFF1
  4858                           indf0	equ	0xFEF
  4859                           postinc0	equ	0xFEE
  4860                           fsr0h	equ	0xFEA
  4861                           fsr0l	equ	0xFE9
  4862                           wreg	equ	0xFE8
  4863                           postdec1	equ	0xFE5
  4864                           fsr1l	equ	0xFE1
  4865                           indf2	equ	0xFDF
  4866                           postinc2	equ	0xFDE
  4867                           postdec2	equ	0xFDD
  4868                           fsr2h	equ	0xFDA
  4869                           fsr2l	equ	0xFD9
  4870                           status	equ	0xFD8
  4871                           
  4872 ;; *************** function _sort_samples *****************
  4873 ;; Defined at:
  4874 ;;		line 380 in file "ourProject.c"
  4875 ;; Parameters:    Size  Location     Type
  4876 ;;  samples         2    0[COMRAM] PTR unsigned int 
  4877 ;;		 -> hcsr04_read_filtered@samples(6), 
  4878 ;;  count           1    2[COMRAM] unsigned char 
  4879 ;; Auto vars:     Size  Location     Type
  4880 ;;  temp            2    7[COMRAM] unsigned int 
  4881 ;;  i               1   10[COMRAM] unsigned char 
  4882 ;;  j               1    9[COMRAM] unsigned char 
  4883 ;; Return value:  Size  Location     Type
  4884 ;;                  1    wreg      void 
  4885 ;; Registers used:
  4886 ;;		wreg, fsr1l, fsr1h, fsr2l, fsr2h, status,2, status,0, prodl, prodh
  4887 ;; Tracked objects:
  4888 ;;		On entry : 0/0
  4889 ;;		On exit  : 0/0
  4890 ;;		Unchanged: 0/0
  4891 ;; Data sizes:     COMRAM   BANK0   BANK1   BANK2   BANK3   BANK4   BANK5   BANK6   BANK7   BANK8   BANK9  BANK10  BANK1
      +1  BANK12  BANK13  BANK14  BANK15
  4892 ;;      Params:         3       0       0       0       0       0       0       0       0       0       0       0       
      +0       0       0       0       0
  4893 ;;      Locals:         4       0       0       0       0       0       0       0       0       0       0       0       
      +0       0       0       0       0
  4894 ;;      Temps:          4       0       0       0       0       0       0       0       0       0       0       0       
      +0       0       0       0       0
  4895 ;;      Totals:        11       0       0       0       0       0       0       0       0       0       0       0       
      +0       0       0       0       0
  4896 ;;Total ram usage:       11 bytes
  4897 ;; Hardware stack levels used:    1
  4898 ;; This function calls:
  4899 ;;		Nothing
  4900 ;; This function is called by:
  4901 ;;		_hcsr04_read_filtered
  4902 ;; This function uses a non-reentrant model
  4903 ;;
  4904                           
  4905                           	psect	text29
  4906  0019D4                     __ptext29:
  4907                           	opt stack 0
  4908  0019D4                     _sort_samples:
  4909                           	opt stack 28
  4910                           
  4911                           ;ourProject.c: 381: unsigned char i;
  4912                           ;ourProject.c: 382: unsigned char j;
  4913                           ;ourProject.c: 383: unsigned int temp;
  4914                           ;ourProject.c: 385: for(i = 0; i < count; i++) {
  4915                           
  4916                           ;incstack = 0
  4917  0019D4  0E00               	movlw	0
  4918  0019D6  6E0B               	movwf	sort_samples@i,c
  4919  0019D8  D04B               	goto	l345
  4920  0019DA                     
  4921                           ;ourProject.c: 386: for(j = i + 1; j < count; j++) {
  4922  0019DA  280B               	incf	sort_samples@i,w,c
  4923  0019DC  6E0A               	movwf	sort_samples@j,c
  4924  0019DE  D043               	goto	l347
  4925  0019E0                     
  4926                           ;ourProject.c: 387: if(samples[j] < samples[i]) {
  4927  0019E0  500B               	movf	sort_samples@i,w,c
  4928  0019E2  0D02               	mullw	2
  4929  0019E4  50F3               	movf	prodl,w,c
  4930  0019E6  2401               	addwf	sort_samples@samples,w,c
  4931  0019E8  6ED9               	movwf	fsr2l,c
  4932  0019EA  50F4               	movf	prodh,w,c
  4933  0019EC  2002               	addwfc	sort_samples@samples+1,w,c
  4934  0019EE  6EDA               	movwf	fsr2h,c
  4935  0019F0  500A               	movf	sort_samples@j,w,c
  4936  0019F2  0D02               	mullw	2
  4937  0019F4  50F3               	movf	prodl,w,c
  4938  0019F6  2401               	addwf	sort_samples@samples,w,c
  4939  0019F8  6EE1               	movwf	fsr1l,c
  4940  0019FA  50F4               	movf	prodh,w,c
  4941  0019FC  2002               	addwfc	sort_samples@samples+1,w,c
  4942  0019FE  6EE2               	movwf	fsr1h,c
  4943  001A00  50DE               	movf	postinc2,w,c
  4944  001A02  5CE6               	subwf	postinc1,w,c
  4945  001A04  50DE               	movf	postinc2,w,c
  4946  001A06  58E6               	subwfb	postinc1,w,c
  4947  001A08  B0D8               	btfsc	status,0,c
  4948  001A0A  D02C               	goto	l349
  4949                           
  4950                           ;ourProject.c: 388: temp = samples[i];
  4951  001A0C  500B               	movf	sort_samples@i,w,c
  4952  001A0E  0D02               	mullw	2
  4953  001A10  50F3               	movf	prodl,w,c
  4954  001A12  2401               	addwf	sort_samples@samples,w,c
  4955  001A14  6ED9               	movwf	fsr2l,c
  4956  001A16  50F4               	movf	prodh,w,c
  4957  001A18  2002               	addwfc	sort_samples@samples+1,w,c
  4958  001A1A  6EDA               	movwf	fsr2h,c
  4959  001A1C  CFDE F008          	movff	postinc2,sort_samples@temp
  4960  001A20  CFDD F009          	movff	postdec2,sort_samples@temp+1
  4961                           
  4962                           ;ourProject.c: 389: samples[i] = samples[j];
  4963  001A24  500A               	movf	sort_samples@j,w,c
  4964  001A26  0D02               	mullw	2
  4965  001A28  50F3               	movf	prodl,w,c
  4966  001A2A  2401               	addwf	sort_samples@samples,w,c
  4967  001A2C  6ED9               	movwf	fsr2l,c
  4968  001A2E  50F4               	movf	prodh,w,c
  4969  001A30  2002               	addwfc	sort_samples@samples+1,w,c
  4970  001A32  6EDA               	movwf	fsr2h,c
  4971  001A34  500B               	movf	sort_samples@i,w,c
  4972  001A36  0D02               	mullw	2
  4973  001A38  50F3               	movf	prodl,w,c
  4974  001A3A  2401               	addwf	sort_samples@samples,w,c
  4975  001A3C  6EE1               	movwf	fsr1l,c
  4976  001A3E  50F4               	movf	prodh,w,c
  4977  001A40  2002               	addwfc	sort_samples@samples+1,w,c
  4978  001A42  6EE2               	movwf	fsr1h,c
  4979  001A44  CFDE FFE6          	movff	postinc2,postinc1
  4980  001A48  CFDD FFE5          	movff	postdec2,postdec1
  4981                           
  4982                           ;ourProject.c: 390: samples[j] = temp;
  4983  001A4C  500A               	movf	sort_samples@j,w,c
  4984  001A4E  0D02               	mullw	2
  4985  001A50  50F3               	movf	prodl,w,c
  4986  001A52  2401               	addwf	sort_samples@samples,w,c
  4987  001A54  6ED9               	movwf	fsr2l,c
  4988  001A56  50F4               	movf	prodh,w,c
  4989  001A58  2002               	addwfc	sort_samples@samples+1,w,c
  4990  001A5A  6EDA               	movwf	fsr2h,c
  4991  001A5C  C008  FFDE         	movff	sort_samples@temp,postinc2
  4992  001A60  C009  FFDD         	movff	sort_samples@temp+1,postdec2
  4993  001A64                     l349:
  4994  001A64  2A0A               	incf	sort_samples@j,f,c
  4995  001A66                     l347:
  4996  001A66  5003               	movf	sort_samples@count,w,c
  4997  001A68  5C0A               	subwf	sort_samples@j,w,c
  4998  001A6A  A0D8               	btfss	status,0,c
  4999  001A6C  D7B9               	goto	l348
  5000  001A6E  2A0B               	incf	sort_samples@i,f,c
  5001  001A70                     l345:
  5002  001A70  5003               	movf	sort_samples@count,w,c
  5003  001A72  5C0B               	subwf	sort_samples@i,w,c
  5004  001A74  B0D8               	btfsc	status,0,c
  5005  001A76  0012               	return	
  5006  001A78  D7B0               	goto	l346
  5007  001A7A                     __end_of_sort_samples:
  5008                           	opt stack 0
  5009                           tblptru	equ	0xFF8
  5010                           tblptrh	equ	0xFF7
  5011                           tblptrl	equ	0xFF6
  5012                           tablat	equ	0xFF5
  5013                           prodh	equ	0xFF4
  5014                           prodl	equ	0xFF3
  5015                           intcon	equ	0xFF2
  5016                           intcon2	equ	0xFF1
  5017                           indf0	equ	0xFEF
  5018                           postinc0	equ	0xFEE
  5019                           fsr0h	equ	0xFEA
  5020                           fsr0l	equ	0xFE9
  5021                           wreg	equ	0xFE8
  5022                           postinc1	equ	0xFE6
  5023                           postdec1	equ	0xFE5
  5024                           fsr1h	equ	0xFE2
  5025                           fsr1l	equ	0xFE1
  5026                           indf2	equ	0xFDF
  5027                           postinc2	equ	0xFDE
  5028                           postdec2	equ	0xFDD
  5029                           fsr2h	equ	0xFDA
  5030                           fsr2l	equ	0xFD9
  5031                           status	equ	0xFD8
  5032                           
  5033 ;; *************** function _hcsr04_read_once *****************
  5034 ;; Defined at:
  5035 ;;		line 465 in file "ourProject.c"
  5036 ;; Parameters:    Size  Location     Type
  5037 ;;  distance_cm     2    8[COMRAM] PTR unsigned int 
  5038 ;;		 -> hcsr04_read_filtered@reading(2), 
  5039 ;; Auto vars:     Size  Location     Type
  5040 ;;  cm              2   12[COMRAM] unsigned int 
  5041 ;;  pulse_us        2   10[COMRAM] unsigned int 
  5042 ;; Return value:  Size  Location     Type
  5043 ;;                  1    wreg      unsigned char 
  5044 ;; Registers used:
  5045 ;;		wreg, fsr2l, fsr2h, status,2, status,0, cstack
  5046 ;; Tracked objects:
  5047 ;;		On entry : 0/0
  5048 ;;		On exit  : 0/0
  5049 ;;		Unchanged: 0/0
  5050 ;; Data sizes:     COMRAM   BANK0   BANK1   BANK2   BANK3   BANK4   BANK5   BANK6   BANK7   BANK8   BANK9  BANK10  BANK1
      +1  BANK12  BANK13  BANK14  BANK15
  5051 ;;      Params:         2       0       0       0       0       0       0       0       0       0       0       0       
      +0       0       0       0       0
  5052 ;;      Locals:         4       0       0       0       0       0       0       0       0       0       0       0       
      +0       0       0       0       0
  5053 ;;      Temps:          0       0       0       0       0       0       0       0       0       0       0       0       
      +0       0       0       0       0
  5054 ;;      Totals:         6       0       0       0       0       0       0       0       0       0       0       0       
      +0       0       0       0       0
  5055 ;;Total ram usage:        6 bytes
  5056 ;; Hardware stack levels used:    1
  5057 ;; Hardware stack levels required when called:    2
  5058 ;; This function calls:
  5059 ;;		___lwdiv
  5060 ;;		_delay_us_var
  5061 ;;		_timer1_read_us
  5062 ;;		_timer1_start_us
  5063 ;;		_timer1_stop
  5064 ;;		_timer1_timeout
  5065 ;; This function is called by:
  5066 ;;		_hcsr04_read_filtered
  5067 ;; This function uses a non-reentrant model
  5068 ;;
  5069                           
  5070                           	psect	text30
  5071  0018E0                     __ptext30:
  5072                           	opt stack 0
  5073  0018E0                     _hcsr04_read_once:
  5074                           	opt stack 26
  5075                           
  5076                           ;ourProject.c: 466: unsigned int pulse_us;
  5077                           ;ourProject.c: 467: unsigned int cm;
  5078                           ;ourProject.c: 470: timer1_start_us();
  5079                           
  5080                           ;incstack = 0
  5081  0018E0  EC85  F011         	call	_timer1_start_us	;wreg free
  5082                           
  5083                           ;ourProject.c: 471: while(PORTCbits.RC3) {
  5084  0018E4  D00E               	goto	l383
  5085  0018E6                     
  5086                           ;ourProject.c: 472: if(timer1_timeout(30000U)) {
  5087  0018E6  0E75               	movlw	117
  5088  0018E8  6E08               	movwf	timer1_timeout@timeout_us+1,c
  5089  0018EA  0E30               	movlw	48
  5090  0018EC  6E07               	movwf	timer1_timeout@timeout_us,c
  5091  0018EE  EC32  F011         	call	_timer1_timeout	;wreg free
  5092  0018F2  0900               	iorlw	0
  5093  0018F4  B4D8               	btfsc	status,2,c
  5094  0018F6  D004               	goto	l385
  5095                           
  5096                           ;ourProject.c: 473: timer1_stop();
  5097  0018F8  ECA3  F011         	call	_timer1_stop	;wreg free
  5098                           
  5099                           ;ourProject.c: 474: return 0;
  5100  0018FC  0E00               	movlw	0
  5101  0018FE  0012               	return	
  5102  001900                     l385:
  5103  001900  0004               	clrwdt		;# 
  5104  001902                     l383:
  5105  001902  B682               	btfsc	3970,3,c	;volatile
  5106  001904  D7F0               	goto	l384
  5107                           
  5108                           ;ourProject.c: 477: }
  5109                           ;ourProject.c: 478: timer1_stop();
  5110  001906  ECA3  F011         	call	_timer1_stop	;wreg free
  5111                           
  5112                           ;ourProject.c: 480: LATCbits.LATC0 = 0;
  5113  00190A  908B               	bcf	3979,0,c	;volatile
  5114                           
  5115                           ;ourProject.c: 481: delay_us_var(2);
  5116  00190C  0E00               	movlw	0
  5117  00190E  6E02               	movwf	delay_us_var@us+1,c
  5118  001910  0E02               	movlw	2
  5119  001912  6E01               	movwf	delay_us_var@us,c
  5120  001914  ECB4  F00E         	call	_delay_us_var	;wreg free
  5121                           
  5122                           ;ourProject.c: 482: LATCbits.LATC0 = 1;
  5123  001918  808B               	bsf	3979,0,c	;volatile
  5124                           
  5125                           ;ourProject.c: 483: delay_us_var(10);
  5126  00191A  0E00               	movlw	0
  5127  00191C  6E02               	movwf	delay_us_var@us+1,c
  5128  00191E  0E0A               	movlw	10
  5129  001920  6E01               	movwf	delay_us_var@us,c
  5130  001922  ECB4  F00E         	call	_delay_us_var	;wreg free
  5131                           
  5132                           ;ourProject.c: 484: LATCbits.LATC0 = 0;
  5133  001926  908B               	bcf	3979,0,c	;volatile
  5134                           
  5135                           ;ourProject.c: 486: timer1_start_us();
  5136  001928  EC85  F011         	call	_timer1_start_us	;wreg free
  5137                           
  5138                           ;ourProject.c: 487: while(!PORTCbits.RC3) {
  5139  00192C  D00E               	goto	l388
  5140  00192E                     
  5141                           ;ourProject.c: 488: if(timer1_timeout(30000U)) {
  5142  00192E  0E75               	movlw	117
  5143  001930  6E08               	movwf	timer1_timeout@timeout_us+1,c
  5144  001932  0E30               	movlw	48
  5145  001934  6E07               	movwf	timer1_timeout@timeout_us,c
  5146  001936  EC32  F011         	call	_timer1_timeout	;wreg free
  5147  00193A  0900               	iorlw	0
  5148  00193C  B4D8               	btfsc	status,2,c
  5149  00193E  D004               	goto	l390
  5150                           
  5151                           ;ourProject.c: 489: timer1_stop();
  5152  001940  ECA3  F011         	call	_timer1_stop	;wreg free
  5153                           
  5154                           ;ourProject.c: 490: return 0;
  5155  001944  0E00               	movlw	0
  5156  001946  0012               	return	
  5157  001948                     l390:
  5158  001948  0004               	clrwdt		;# 
  5159  00194A                     l388:
  5160  00194A  A682               	btfss	3970,3,c	;volatile
  5161  00194C  D7F0               	goto	l389
  5162                           
  5163                           ;ourProject.c: 493: }
  5164                           ;ourProject.c: 495: timer1_start_us();
  5165  00194E  EC85  F011         	call	_timer1_start_us	;wreg free
  5166                           
  5167                           ;ourProject.c: 496: while(PORTCbits.RC3) {
  5168  001952  D00E               	goto	l392
  5169  001954                     
  5170                           ;ourProject.c: 497: if(timer1_timeout(30000U)) {
  5171  001954  0E75               	movlw	117
  5172  001956  6E08               	movwf	timer1_timeout@timeout_us+1,c
  5173  001958  0E30               	movlw	48
  5174  00195A  6E07               	movwf	timer1_timeout@timeout_us,c
  5175  00195C  EC32  F011         	call	_timer1_timeout	;wreg free
  5176  001960  0900               	iorlw	0
  5177  001962  B4D8               	btfsc	status,2,c
  5178  001964  D004               	goto	l394
  5179                           
  5180                           ;ourProject.c: 498: timer1_stop();
  5181  001966  ECA3  F011         	call	_timer1_stop	;wreg free
  5182                           
  5183                           ;ourProject.c: 499: return 0;
  5184  00196A  0E00               	movlw	0
  5185  00196C  0012               	return	
  5186  00196E                     l394:
  5187  00196E  0004               	clrwdt		;# 
  5188  001970                     l392:
  5189  001970  B682               	btfsc	3970,3,c	;volatile
  5190  001972  D7F0               	goto	l393
  5191                           
  5192                           ;ourProject.c: 502: }
  5193                           ;ourProject.c: 503: timer1_stop();
  5194  001974  ECA3  F011         	call	_timer1_stop	;wreg free
  5195                           
  5196                           ;ourProject.c: 505: pulse_us = timer1_read_us();
  5197  001978  EC7A  F011         	call	_timer1_read_us	;wreg free
  5198  00197C  C001  F00B         	movff	?_timer1_read_us,hcsr04_read_once@pulse_us
  5199  001980  C002  F00C         	movff	?_timer1_read_us+1,hcsr04_read_once@pulse_us+1
  5200                           
  5201                           ;ourProject.c: 506: cm = (pulse_us + 29U) / 58U;
  5202  001984  0E1D               	movlw	29
  5203  001986  240B               	addwf	hcsr04_read_once@pulse_us,w,c
  5204  001988  6E01               	movwf	___lwdiv@dividend,c
  5205  00198A  0E00               	movlw	0
  5206  00198C  200C               	addwfc	hcsr04_read_once@pulse_us+1,w,c
  5207  00198E  6E02               	movwf	___lwdiv@dividend+1,c
  5208  001990  0E00               	movlw	0
  5209  001992  6E04               	movwf	___lwdiv@divisor+1,c
  5210  001994  0E3A               	movlw	58
  5211  001996  6E03               	movwf	___lwdiv@divisor,c
  5212  001998  EC35  F00F         	call	___lwdiv	;wreg free
  5213  00199C  C001  F00D         	movff	?___lwdiv,hcsr04_read_once@cm
  5214  0019A0  C002  F00E         	movff	?___lwdiv+1,hcsr04_read_once@cm+1
  5215                           
  5216                           ;ourProject.c: 508: if(cm < 3U || cm > 60U) {
  5217  0019A4  500E               	movf	hcsr04_read_once@cm+1,w,c
  5218  0019A6  E104               	bnz	u1270
  5219  0019A8  0E03               	movlw	3
  5220  0019AA  5C0D               	subwf	hcsr04_read_once@cm,w,c
  5221  0019AC  A0D8               	btfss	status,0,c
  5222  0019AE  D006               	goto	u1280
  5223  0019B0                     u1270:
  5224  0019B0  500E               	movf	hcsr04_read_once@cm+1,w,c
  5225  0019B2  E104               	bnz	l2219
  5226  0019B4  0E3D               	movlw	61
  5227  0019B6  5C0D               	subwf	hcsr04_read_once@cm,w,c
  5228  0019B8  A0D8               	btfss	status,0,c
  5229  0019BA  D002               	goto	l396
  5230  0019BC                     u1280:
  5231  0019BC                     l2219:
  5232                           
  5233                           ;ourProject.c: 509: return 0;
  5234  0019BC  0E00               	movlw	0
  5235  0019BE  0012               	return	
  5236  0019C0                     l396:
  5237                           
  5238                           ;ourProject.c: 510: }
  5239                           ;ourProject.c: 512: *distance_cm = cm;
  5240  0019C0  C009  FFD9         	movff	hcsr04_read_once@distance_cm,fsr2l
  5241  0019C4  C00A  FFDA         	movff	hcsr04_read_once@distance_cm+1,fsr2h
  5242  0019C8  C00D  FFDE         	movff	hcsr04_read_once@cm,postinc2
  5243  0019CC  C00E  FFDD         	movff	hcsr04_read_once@cm+1,postdec2
  5244                           
  5245                           ;ourProject.c: 513: return 1;
  5246  0019D0  0E01               	movlw	1
  5247  0019D2  0012               	return	
  5248  0019D4                     __end_of_hcsr04_read_once:
  5249                           	opt stack 0
  5250                           tblptru	equ	0xFF8
  5251                           tblptrh	equ	0xFF7
  5252                           tblptrl	equ	0xFF6
  5253                           tablat	equ	0xFF5
  5254                           prodh	equ	0xFF4
  5255                           prodl	equ	0xFF3
  5256                           intcon	equ	0xFF2
  5257                           intcon2	equ	0xFF1
  5258                           indf0	equ	0xFEF
  5259                           postinc0	equ	0xFEE
  5260                           fsr0h	equ	0xFEA
  5261                           fsr0l	equ	0xFE9
  5262                           wreg	equ	0xFE8
  5263                           postinc1	equ	0xFE6
  5264                           postdec1	equ	0xFE5
  5265                           fsr1h	equ	0xFE2
  5266                           fsr1l	equ	0xFE1
  5267                           indf2	equ	0xFDF
  5268                           postinc2	equ	0xFDE
  5269                           postdec2	equ	0xFDD
  5270                           fsr2h	equ	0xFDA
  5271                           fsr2l	equ	0xFD9
  5272                           status	equ	0xFD8
  5273                           
  5274 ;; *************** function _timer1_timeout *****************
  5275 ;; Defined at:
  5276 ;;		line 341 in file "ourProject.c"
  5277 ;; Parameters:    Size  Location     Type
  5278 ;;  timeout_us      2    6[COMRAM] unsigned int 
  5279 ;; Auto vars:     Size  Location     Type
  5280 ;;		None
  5281 ;; Return value:  Size  Location     Type
  5282 ;;                  1    wreg      unsigned char 
  5283 ;; Registers used:
  5284 ;;		wreg, status,2, status,0, cstack
  5285 ;; Tracked objects:
  5286 ;;		On entry : 0/0
  5287 ;;		On exit  : 0/0
  5288 ;;		Unchanged: 0/0
  5289 ;; Data sizes:     COMRAM   BANK0   BANK1   BANK2   BANK3   BANK4   BANK5   BANK6   BANK7   BANK8   BANK9  BANK10  BANK1
      +1  BANK12  BANK13  BANK14  BANK15
  5290 ;;      Params:         2       0       0       0       0       0       0       0       0       0       0       0       
      +0       0       0       0       0
  5291 ;;      Locals:         0       0       0       0       0       0       0       0       0       0       0       0       
      +0       0       0       0       0
  5292 ;;      Temps:          0       0       0       0       0       0       0       0       0       0       0       0       
      +0       0       0       0       0
  5293 ;;      Totals:         2       0       0       0       0       0       0       0       0       0       0       0       
      +0       0       0       0       0
  5294 ;;Total ram usage:        2 bytes
  5295 ;; Hardware stack levels used:    1
  5296 ;; Hardware stack levels required when called:    1
  5297 ;; This function calls:
  5298 ;;		_timer1_read_us
  5299 ;; This function is called by:
  5300 ;;		_hcsr04_read_once
  5301 ;; This function uses a non-reentrant model
  5302 ;;
  5303                           
  5304                           	psect	text31
  5305  002264                     __ptext31:
  5306                           	opt stack 0
  5307  002264                     _timer1_timeout:
  5308                           	opt stack 26
  5309                           
  5310                           ;ourProject.c: 342: if(PIR1bits.TMR1IF) {
  5311                           
  5312                           ;incstack = 0
  5313  002264  A09E               	btfss	3998,0,c	;volatile
  5314  002266  D002               	goto	l328
  5315                           
  5316                           ;ourProject.c: 343: return 1;
  5317  002268  0E01               	movlw	1
  5318  00226A  0012               	return	
  5319  00226C                     l328:
  5320                           
  5321                           ;ourProject.c: 344: }
  5322                           ;ourProject.c: 346: if(timer1_read_us() >= timeout_us) {
  5323  00226C  EC7A  F011         	call	_timer1_read_us	;wreg free
  5324  002270  5007               	movf	timer1_timeout@timeout_us,w,c
  5325  002272  5C01               	subwf	?_timer1_read_us,w,c
  5326  002274  5008               	movf	timer1_timeout@timeout_us+1,w,c
  5327  002276  5802               	subwfb	?_timer1_read_us+1,w,c
  5328  002278  A0D8               	btfss	status,0,c
  5329  00227A  D002               	goto	l330
  5330                           
  5331                           ;ourProject.c: 347: return 1;
  5332  00227C  0E01               	movlw	1
  5333  00227E  0012               	return	
  5334  002280                     l330:
  5335                           
  5336                           ;ourProject.c: 348: }
  5337                           ;ourProject.c: 350: return 0;
  5338  002280  0E00               	movlw	0
  5339  002282  0012               	return	
  5340  002284                     __end_of_timer1_timeout:
  5341                           	opt stack 0
  5342                           tblptru	equ	0xFF8
  5343                           tblptrh	equ	0xFF7
  5344                           tblptrl	equ	0xFF6
  5345                           tablat	equ	0xFF5
  5346                           prodh	equ	0xFF4
  5347                           prodl	equ	0xFF3
  5348                           intcon	equ	0xFF2
  5349                           intcon2	equ	0xFF1
  5350                           indf0	equ	0xFEF
  5351                           postinc0	equ	0xFEE
  5352                           fsr0h	equ	0xFEA
  5353                           fsr0l	equ	0xFE9
  5354                           wreg	equ	0xFE8
  5355                           postinc1	equ	0xFE6
  5356                           postdec1	equ	0xFE5
  5357                           fsr1h	equ	0xFE2
  5358                           fsr1l	equ	0xFE1
  5359                           indf2	equ	0xFDF
  5360                           postinc2	equ	0xFDE
  5361                           postdec2	equ	0xFDD
  5362                           fsr2h	equ	0xFDA
  5363                           fsr2l	equ	0xFD9
  5364                           status	equ	0xFD8
  5365                           
  5366 ;; *************** function _timer1_read_us *****************
  5367 ;; Defined at:
  5368 ;;		line 331 in file "ourProject.c"
  5369 ;; Parameters:    Size  Location     Type
  5370 ;;		None
  5371 ;; Auto vars:     Size  Location     Type
  5372 ;;  high_byte       1    5[COMRAM] unsigned char 
  5373 ;;  low_byte        1    4[COMRAM] unsigned char 
  5374 ;; Return value:  Size  Location     Type
  5375 ;;                  2    0[COMRAM] unsigned int 
  5376 ;; Registers used:
  5377 ;;		wreg, status,2
  5378 ;; Tracked objects:
  5379 ;;		On entry : 0/0
  5380 ;;		On exit  : 0/0
  5381 ;;		Unchanged: 0/0
  5382 ;; Data sizes:     COMRAM   BANK0   BANK1   BANK2   BANK3   BANK4   BANK5   BANK6   BANK7   BANK8   BANK9  BANK10  BANK1
      +1  BANK12  BANK13  BANK14  BANK15
  5383 ;;      Params:         2       0       0       0       0       0       0       0       0       0       0       0       
      +0       0       0       0       0
  5384 ;;      Locals:         2       0       0       0       0       0       0       0       0       0       0       0       
      +0       0       0       0       0
  5385 ;;      Temps:          2       0       0       0       0       0       0       0       0       0       0       0       
      +0       0       0       0       0
  5386 ;;      Totals:         6       0       0       0       0       0       0       0       0       0       0       0       
      +0       0       0       0       0
  5387 ;;Total ram usage:        6 bytes
  5388 ;; Hardware stack levels used:    1
  5389 ;; This function calls:
  5390 ;;		Nothing
  5391 ;; This function is called by:
  5392 ;;		_timer1_timeout
  5393 ;;		_hcsr04_read_once
  5394 ;; This function uses a non-reentrant model
  5395 ;;
  5396                           
  5397                           	psect	text32
  5398  0022F4                     __ptext32:
  5399                           	opt stack 0
  5400  0022F4                     _timer1_read_us:
  5401                           	opt stack 26
  5402                           
  5403                           ;ourProject.c: 332: unsigned char low_byte;
  5404                           ;ourProject.c: 333: unsigned char high_byte;
  5405                           ;ourProject.c: 335: low_byte = TMR1L;
  5406                           
  5407                           ;incstack = 0
  5408  0022F4  CFCE F005          	movff	4046,timer1_read_us@low_byte	;volatile
  5409                           
  5410                           ;ourProject.c: 336: high_byte = TMR1H;
  5411  0022F8  CFCF F006          	movff	4047,timer1_read_us@high_byte	;volatile
  5412                           
  5413                           ;ourProject.c: 338: return ((unsigned int)high_byte << 8) | low_byte;
  5414  0022FC  5006               	movf	timer1_read_us@high_byte,w,c
  5415  0022FE  6E03               	movwf	??_timer1_read_us& (0+255),c
  5416  002300  5005               	movf	timer1_read_us@low_byte,w,c
  5417  002302  6E01               	movwf	?_timer1_read_us,c
  5418  002304  C003  F002         	movff	??_timer1_read_us,?_timer1_read_us+1
  5419  002308  0012               	return	
  5420  00230A                     __end_of_timer1_read_us:
  5421                           	opt stack 0
  5422                           tblptru	equ	0xFF8
  5423                           tblptrh	equ	0xFF7
  5424                           tblptrl	equ	0xFF6
  5425                           tablat	equ	0xFF5
  5426                           prodh	equ	0xFF4
  5427                           prodl	equ	0xFF3
  5428                           intcon	equ	0xFF2
  5429                           intcon2	equ	0xFF1
  5430                           indf0	equ	0xFEF
  5431                           postinc0	equ	0xFEE
  5432                           fsr0h	equ	0xFEA
  5433                           fsr0l	equ	0xFE9
  5434                           wreg	equ	0xFE8
  5435                           postinc1	equ	0xFE6
  5436                           postdec1	equ	0xFE5
  5437                           fsr1h	equ	0xFE2
  5438                           fsr1l	equ	0xFE1
  5439                           indf2	equ	0xFDF
  5440                           postinc2	equ	0xFDE
  5441                           postdec2	equ	0xFDD
  5442                           fsr2h	equ	0xFDA
  5443                           fsr2l	equ	0xFD9
  5444                           status	equ	0xFD8
  5445                           
  5446 ;; *************** function _timer1_stop *****************
  5447 ;; Defined at:
  5448 ;;		line 327 in file "ourProject.c"
  5449 ;; Parameters:    Size  Location     Type
  5450 ;;		None
  5451 ;; Auto vars:     Size  Location     Type
  5452 ;;		None
  5453 ;; Return value:  Size  Location     Type
  5454 ;;                  1    wreg      void 
  5455 ;; Registers used:
  5456 ;;		wreg, status,2
  5457 ;; Tracked objects:
  5458 ;;		On entry : 0/0
  5459 ;;		On exit  : 0/0
  5460 ;;		Unchanged: 0/0
  5461 ;; Data sizes:     COMRAM   BANK0   BANK1   BANK2   BANK3   BANK4   BANK5   BANK6   BANK7   BANK8   BANK9  BANK10  BANK1
      +1  BANK12  BANK13  BANK14  BANK15
  5462 ;;      Params:         0       0       0       0       0       0       0       0       0       0       0       0       
      +0       0       0       0       0
  5463 ;;      Locals:         0       0       0       0       0       0       0       0       0       0       0       0       
      +0       0       0       0       0
  5464 ;;      Temps:          0       0       0       0       0       0       0       0       0       0       0       0       
      +0       0       0       0       0
  5465 ;;      Totals:         0       0       0       0       0       0       0       0       0       0       0       0       
      +0       0       0       0       0
  5466 ;;Total ram usage:        0 bytes
  5467 ;; Hardware stack levels used:    1
  5468 ;; This function calls:
  5469 ;;		Nothing
  5470 ;; This function is called by:
  5471 ;;		_hcsr04_read_once
  5472 ;; This function uses a non-reentrant model
  5473 ;;
  5474                           
  5475                           	psect	text33
  5476  002346                     __ptext33:
  5477                           	opt stack 0
  5478  002346                     _timer1_stop:
  5479                           	opt stack 27
  5480                           
  5481                           ;ourProject.c: 328: T1CON = 0x80;
  5482                           
  5483                           ;incstack = 0
  5484  002346  0E80               	movlw	128
  5485  002348  6ECD               	movwf	4045,c	;volatile
  5486  00234A  0012               	return		;funcret
  5487  00234C                     __end_of_timer1_stop:
  5488                           	opt stack 0
  5489                           tblptru	equ	0xFF8
  5490                           tblptrh	equ	0xFF7
  5491                           tblptrl	equ	0xFF6
  5492                           tablat	equ	0xFF5
  5493                           prodh	equ	0xFF4
  5494                           prodl	equ	0xFF3
  5495                           intcon	equ	0xFF2
  5496                           intcon2	equ	0xFF1
  5497                           indf0	equ	0xFEF
  5498                           postinc0	equ	0xFEE
  5499                           fsr0h	equ	0xFEA
  5500                           fsr0l	equ	0xFE9
  5501                           wreg	equ	0xFE8
  5502                           postinc1	equ	0xFE6
  5503                           postdec1	equ	0xFE5
  5504                           fsr1h	equ	0xFE2
  5505                           fsr1l	equ	0xFE1
  5506                           indf2	equ	0xFDF
  5507                           postinc2	equ	0xFDE
  5508                           postdec2	equ	0xFDD
  5509                           fsr2h	equ	0xFDA
  5510                           fsr2l	equ	0xFD9
  5511                           status	equ	0xFD8
  5512                           
  5513 ;; *************** function _timer1_start_us *****************
  5514 ;; Defined at:
  5515 ;;		line 319 in file "ourProject.c"
  5516 ;; Parameters:    Size  Location     Type
  5517 ;;		None
  5518 ;; Auto vars:     Size  Location     Type
  5519 ;;		None
  5520 ;; Return value:  Size  Location     Type
  5521 ;;                  1    wreg      void 
  5522 ;; Registers used:
  5523 ;;		wreg, status,2
  5524 ;; Tracked objects:
  5525 ;;		On entry : 0/0
  5526 ;;		On exit  : 0/0
  5527 ;;		Unchanged: 0/0
  5528 ;; Data sizes:     COMRAM   BANK0   BANK1   BANK2   BANK3   BANK4   BANK5   BANK6   BANK7   BANK8   BANK9  BANK10  BANK1
      +1  BANK12  BANK13  BANK14  BANK15
  5529 ;;      Params:         0       0       0       0       0       0       0       0       0       0       0       0       
      +0       0       0       0       0
  5530 ;;      Locals:         0       0       0       0       0       0       0       0       0       0       0       0       
      +0       0       0       0       0
  5531 ;;      Temps:          0       0       0       0       0       0       0       0       0       0       0       0       
      +0       0       0       0       0
  5532 ;;      Totals:         0       0       0       0       0       0       0       0       0       0       0       0       
      +0       0       0       0       0
  5533 ;;Total ram usage:        0 bytes
  5534 ;; Hardware stack levels used:    1
  5535 ;; This function calls:
  5536 ;;		Nothing
  5537 ;; This function is called by:
  5538 ;;		_hcsr04_read_once
  5539 ;; This function uses a non-reentrant model
  5540 ;;
  5541                           
  5542                           	psect	text34
  5543  00230A                     __ptext34:
  5544                           	opt stack 0
  5545  00230A                     _timer1_start_us:
  5546                           	opt stack 27
  5547                           
  5548                           ;ourProject.c: 320: T1CON = 0x80;
  5549                           
  5550                           ;incstack = 0
  5551  00230A  0E80               	movlw	128
  5552  00230C  6ECD               	movwf	4045,c	;volatile
  5553                           
  5554                           ;ourProject.c: 321: PIR1bits.TMR1IF = 0;
  5555  00230E  909E               	bcf	3998,0,c	;volatile
  5556                           
  5557                           ;ourProject.c: 322: TMR1H = 0;
  5558  002310  0E00               	movlw	0
  5559  002312  6ECF               	movwf	4047,c	;volatile
  5560                           
  5561                           ;ourProject.c: 323: TMR1L = 0;
  5562  002314  0E00               	movlw	0
  5563  002316  6ECE               	movwf	4046,c	;volatile
  5564                           
  5565                           ;ourProject.c: 324: T1CON = 0x81;
  5566  002318  0E81               	movlw	129
  5567  00231A  6ECD               	movwf	4045,c	;volatile
  5568  00231C  0012               	return		;funcret
  5569  00231E                     __end_of_timer1_start_us:
  5570                           	opt stack 0
  5571                           tblptru	equ	0xFF8
  5572                           tblptrh	equ	0xFF7
  5573                           tblptrl	equ	0xFF6
  5574                           tablat	equ	0xFF5
  5575                           prodh	equ	0xFF4
  5576                           prodl	equ	0xFF3
  5577                           intcon	equ	0xFF2
  5578                           intcon2	equ	0xFF1
  5579                           indf0	equ	0xFEF
  5580                           postinc0	equ	0xFEE
  5581                           fsr0h	equ	0xFEA
  5582                           fsr0l	equ	0xFE9
  5583                           wreg	equ	0xFE8
  5584                           postinc1	equ	0xFE6
  5585                           postdec1	equ	0xFE5
  5586                           fsr1h	equ	0xFE2
  5587                           fsr1l	equ	0xFE1
  5588                           indf2	equ	0xFDF
  5589                           postinc2	equ	0xFDE
  5590                           postdec2	equ	0xFDD
  5591                           fsr2h	equ	0xFDA
  5592                           fsr2l	equ	0xFD9
  5593                           status	equ	0xFD8
  5594                           
  5595 ;; *************** function _delay_us_var *****************
  5596 ;; Defined at:
  5597 ;;		line 291 in file "ourProject.c"
  5598 ;; Parameters:    Size  Location     Type
  5599 ;;  us              2    0[COMRAM] unsigned int 
  5600 ;; Auto vars:     Size  Location     Type
  5601 ;;		None
  5602 ;; Return value:  Size  Location     Type
  5603 ;;                  1    wreg      void 
  5604 ;; Registers used:
  5605 ;;		wreg, status,2, status,0
  5606 ;; Tracked objects:
  5607 ;;		On entry : 0/0
  5608 ;;		On exit  : 0/0
  5609 ;;		Unchanged: 0/0
  5610 ;; Data sizes:     COMRAM   BANK0   BANK1   BANK2   BANK3   BANK4   BANK5   BANK6   BANK7   BANK8   BANK9  BANK10  BANK1
      +1  BANK12  BANK13  BANK14  BANK15
  5611 ;;      Params:         2       0       0       0       0       0       0       0       0       0       0       0       
      +0       0       0       0       0
  5612 ;;      Locals:         0       0       0       0       0       0       0       0       0       0       0       0       
      +0       0       0       0       0
  5613 ;;      Temps:          0       0       0       0       0       0       0       0       0       0       0       0       
      +0       0       0       0       0
  5614 ;;      Totals:         2       0       0       0       0       0       0       0       0       0       0       0       
      +0       0       0       0       0
  5615 ;;Total ram usage:        2 bytes
  5616 ;; Hardware stack levels used:    1
  5617 ;; This function calls:
  5618 ;;		Nothing
  5619 ;; This function is called by:
  5620 ;;		_servo_pulse_us
  5621 ;;		_hcsr04_read_once
  5622 ;; This function uses a non-reentrant model
  5623 ;;
  5624                           
  5625                           	psect	text35
  5626  001D68                     __ptext35:
  5627                           	opt stack 0
  5628  001D68                     _delay_us_var:
  5629                           	opt stack 28
  5630                           
  5631                           ;ourProject.c: 292: while(us >= 100U) {
  5632                           
  5633                           ;incstack = 0
  5634  001D68  D009               	goto	l301
  5635  001D6A                     l2015:
  5636                           
  5637                           ;ourProject.c: 293: _delay((unsigned long)((100)*(4000000UL/4000000.0)));
  5638  001D6A  0E21               	movlw	33
  5639  001D6C                     u1947:
  5640  001D6C  2EE8               	decfsz	wreg,f,c
  5641  001D6E  D7FE               	bra	u1947
  5642  001D70  F000               	nop	
  5643                           
  5644                           ;ourProject.c: 294: us -= 100U;
  5645  001D72  0E64               	movlw	100
  5646  001D74  5E01               	subwf	delay_us_var@us,f,c
  5647  001D76  0E00               	movlw	0
  5648  001D78  5A02               	subwfb	delay_us_var@us+1,f,c
  5649  001D7A  0004               	clrwdt		;# 
  5650  001D7C                     l301:
  5651  001D7C  5002               	movf	delay_us_var@us+1,w,c
  5652  001D7E  E1F5               	bnz	l2015
  5653  001D80  0E64               	movlw	100
  5654  001D82  5C01               	subwf	delay_us_var@us,w,c
  5655  001D84  A0D8               	btfss	status,0,c
  5656  001D86  D00A               	goto	l304
  5657  001D88  D7F0               	goto	l302
  5658  001D8A                     l2021:
  5659                           
  5660                           ;ourProject.c: 299: _delay((unsigned long)((10)*(4000000UL/4000000.0)));
  5661  001D8A  0E03               	movlw	3
  5662  001D8C                     u1957:
  5663  001D8C  2EE8               	decfsz	wreg,f,c
  5664  001D8E  D7FE               	bra	u1957
  5665  001D90  F000               	nop	
  5666                           
  5667                           ;ourProject.c: 300: us -= 10U;
  5668  001D92  0E0A               	movlw	10
  5669  001D94  5E01               	subwf	delay_us_var@us,f,c
  5670  001D96  0E00               	movlw	0
  5671  001D98  5A02               	subwfb	delay_us_var@us+1,f,c
  5672  001D9A  0004               	clrwdt		;# 
  5673  001D9C                     l304:
  5674  001D9C  5002               	movf	delay_us_var@us+1,w,c
  5675  001D9E  E1F5               	bnz	l2021
  5676  001DA0  0E0A               	movlw	10
  5677  001DA2  5C01               	subwf	delay_us_var@us,w,c
  5678  001DA4  A0D8               	btfss	status,0,c
  5679  001DA6  D006               	goto	l307
  5680  001DA8  D7F0               	goto	l305
  5681  001DAA                     l308:
  5682                           
  5683                           ;ourProject.c: 305: _delay((unsigned long)((1)*(4000000UL/4000000.0)));
  5684  001DAA  F000               	nop	
  5685                           
  5686                           ;ourProject.c: 306: us--;
  5687  001DAC  0601               	decf	delay_us_var@us,f,c
  5688  001DAE  A0D8               	btfss	status,0,c
  5689  001DB0  0602               	decf	delay_us_var@us+1,f,c
  5690  001DB2  0004               	clrwdt		;# 
  5691  001DB4                     l307:
  5692  001DB4  5001               	movf	delay_us_var@us,w,c
  5693  001DB6  1002               	iorwf	delay_us_var@us+1,w,c
  5694  001DB8  B4D8               	btfsc	status,2,c
  5695  001DBA  0012               	return	
  5696  001DBC  D7F6               	goto	l308
  5697  001DBE                     __end_of_delay_us_var:
  5698                           	opt stack 0
  5699                           tblptru	equ	0xFF8
  5700                           tblptrh	equ	0xFF7
  5701                           tblptrl	equ	0xFF6
  5702                           tablat	equ	0xFF5
  5703                           prodh	equ	0xFF4
  5704                           prodl	equ	0xFF3
  5705                           intcon	equ	0xFF2
  5706                           intcon2	equ	0xFF1
  5707                           indf0	equ	0xFEF
  5708                           postinc0	equ	0xFEE
  5709                           fsr0h	equ	0xFEA
  5710                           fsr0l	equ	0xFE9
  5711                           wreg	equ	0xFE8
  5712                           postinc1	equ	0xFE6
  5713                           postdec1	equ	0xFE5
  5714                           fsr1h	equ	0xFE2
  5715                           fsr1l	equ	0xFE1
  5716                           indf2	equ	0xFDF
  5717                           postinc2	equ	0xFDE
  5718                           postdec2	equ	0xFDD
  5719                           fsr2h	equ	0xFDA
  5720                           fsr2l	equ	0xFD9
  5721                           status	equ	0xFD8
  5722                           
  5723 ;; *************** function ___lwdiv *****************
  5724 ;; Defined at:
  5725 ;;		line 8 in file "C:\Program Files (x86)\Microchip\xc8\v1.45\sources\common\lwdiv.c"
  5726 ;; Parameters:    Size  Location     Type
  5727 ;;  dividend        2    0[COMRAM] unsigned int 
  5728 ;;  divisor         2    2[COMRAM] unsigned int 
  5729 ;; Auto vars:     Size  Location     Type
  5730 ;;  quotient        2    4[COMRAM] unsigned int 
  5731 ;;  counter         1    6[COMRAM] unsigned char 
  5732 ;; Return value:  Size  Location     Type
  5733 ;;                  2    0[COMRAM] unsigned int 
  5734 ;; Registers used:
  5735 ;;		wreg, status,2, status,0
  5736 ;; Tracked objects:
  5737 ;;		On entry : 0/0
  5738 ;;		On exit  : 0/0
  5739 ;;		Unchanged: 0/0
  5740 ;; Data sizes:     COMRAM   BANK0   BANK1   BANK2   BANK3   BANK4   BANK5   BANK6   BANK7   BANK8   BANK9  BANK10  BANK1
      +1  BANK12  BANK13  BANK14  BANK15
  5741 ;;      Params:         4       0       0       0       0       0       0       0       0       0       0       0       
      +0       0       0       0       0
  5742 ;;      Locals:         3       0       0       0       0       0       0       0       0       0       0       0       
      +0       0       0       0       0
  5743 ;;      Temps:          0       0       0       0       0       0       0       0       0       0       0       0       
      +0       0       0       0       0
  5744 ;;      Totals:         7       0       0       0       0       0       0       0       0       0       0       0       
      +0       0       0       0       0
  5745 ;;Total ram usage:        7 bytes
  5746 ;; Hardware stack levels used:    1
  5747 ;; This function calls:
  5748 ;;		Nothing
  5749 ;; This function is called by:
  5750 ;;		_main
  5751 ;;		_hcsr04_read_once
  5752 ;;		_sprintf
  5753 ;; This function uses a non-reentrant model
  5754 ;;
  5755                           
  5756                           	psect	text36
  5757  001E6A                     __ptext36:
  5758                           	opt stack 0
  5759  001E6A                     ___lwdiv:
  5760                           	opt stack 29
  5761                           
  5762                           ;incstack = 0
  5763  001E6A  0E00               	movlw	0
  5764  001E6C  6E06               	movwf	___lwdiv@quotient+1,c
  5765  001E6E  0E00               	movlw	0
  5766  001E70  6E05               	movwf	___lwdiv@quotient,c
  5767  001E72  5003               	movf	___lwdiv@divisor,w,c
  5768  001E74  1004               	iorwf	___lwdiv@divisor+1,w,c
  5769  001E76  B4D8               	btfsc	status,2,c
  5770  001E78  D01C               	goto	l872
  5771  001E7A  0E01               	movlw	1
  5772  001E7C  6E07               	movwf	___lwdiv@counter,c
  5773  001E7E  D004               	goto	l867
  5774  001E80  90D8               	bcf	status,0,c
  5775  001E82  3603               	rlcf	___lwdiv@divisor,f,c
  5776  001E84  3604               	rlcf	___lwdiv@divisor+1,f,c
  5777  001E86  2A07               	incf	___lwdiv@counter,f,c
  5778  001E88                     l867:
  5779  001E88  AE04               	btfss	___lwdiv@divisor+1,7,c
  5780  001E8A  D7FA               	goto	l868
  5781  001E8C                     u1120:
  5782  001E8C  90D8               	bcf	status,0,c
  5783  001E8E  3605               	rlcf	___lwdiv@quotient,f,c
  5784  001E90  3606               	rlcf	___lwdiv@quotient+1,f,c
  5785  001E92  5003               	movf	___lwdiv@divisor,w,c
  5786  001E94  5C01               	subwf	___lwdiv@dividend,w,c
  5787  001E96  5004               	movf	___lwdiv@divisor+1,w,c
  5788  001E98  5802               	subwfb	___lwdiv@dividend+1,w,c
  5789  001E9A  A0D8               	btfss	status,0,c
  5790  001E9C  D005               	goto	l871
  5791  001E9E  5003               	movf	___lwdiv@divisor,w,c
  5792  001EA0  5E01               	subwf	___lwdiv@dividend,f,c
  5793  001EA2  5004               	movf	___lwdiv@divisor+1,w,c
  5794  001EA4  5A02               	subwfb	___lwdiv@dividend+1,f,c
  5795  001EA6  8005               	bsf	___lwdiv@quotient,0,c
  5796  001EA8                     l871:
  5797  001EA8  90D8               	bcf	status,0,c
  5798  001EAA  3204               	rrcf	___lwdiv@divisor+1,f,c
  5799  001EAC  3203               	rrcf	___lwdiv@divisor,f,c
  5800  001EAE  2E07               	decfsz	___lwdiv@counter,f,c
  5801  001EB0  D7ED               	goto	u1120
  5802  001EB2                     l872:
  5803  001EB2  C005  F001         	movff	___lwdiv@quotient,?___lwdiv
  5804  001EB6  C006  F002         	movff	___lwdiv@quotient+1,?___lwdiv+1
  5805  001EBA  0012               	return		;funcret
  5806  001EBC                     __end_of___lwdiv:
  5807                           	opt stack 0
  5808                           tblptru	equ	0xFF8
  5809                           tblptrh	equ	0xFF7
  5810                           tblptrl	equ	0xFF6
  5811                           tablat	equ	0xFF5
  5812                           prodh	equ	0xFF4
  5813                           prodl	equ	0xFF3
  5814                           intcon	equ	0xFF2
  5815                           intcon2	equ	0xFF1
  5816                           indf0	equ	0xFEF
  5817                           postinc0	equ	0xFEE
  5818                           fsr0h	equ	0xFEA
  5819                           fsr0l	equ	0xFE9
  5820                           wreg	equ	0xFE8
  5821                           postinc1	equ	0xFE6
  5822                           postdec1	equ	0xFE5
  5823                           fsr1h	equ	0xFE2
  5824                           fsr1l	equ	0xFE1
  5825                           indf2	equ	0xFDF
  5826                           postinc2	equ	0xFDE
  5827                           postdec2	equ	0xFDD
  5828                           fsr2h	equ	0xFDA
  5829                           fsr2l	equ	0xFD9
  5830                           status	equ	0xFD8
  5831                           
  5832 ;; *************** function _delay_ms_var *****************
  5833 ;; Defined at:
  5834 ;;		line 311 in file "ourProject.c"
  5835 ;; Parameters:    Size  Location     Type
  5836 ;;  ms              2    0[COMRAM] unsigned int 
  5837 ;; Auto vars:     Size  Location     Type
  5838 ;;		None
  5839 ;; Return value:  Size  Location     Type
  5840 ;;                  1    wreg      void 
  5841 ;; Registers used:
  5842 ;;		wreg, status,2, status,0
  5843 ;; Tracked objects:
  5844 ;;		On entry : 0/0
  5845 ;;		On exit  : 0/0
  5846 ;;		Unchanged: 0/0
  5847 ;; Data sizes:     COMRAM   BANK0   BANK1   BANK2   BANK3   BANK4   BANK5   BANK6   BANK7   BANK8   BANK9  BANK10  BANK1
      +1  BANK12  BANK13  BANK14  BANK15
  5848 ;;      Params:         2       0       0       0       0       0       0       0       0       0       0       0       
      +0       0       0       0       0
  5849 ;;      Locals:         0       0       0       0       0       0       0       0       0       0       0       0       
      +0       0       0       0       0
  5850 ;;      Temps:          0       0       0       0       0       0       0       0       0       0       0       0       
      +0       0       0       0       0
  5851 ;;      Totals:         2       0       0       0       0       0       0       0       0       0       0       0       
      +0       0       0       0       0
  5852 ;;Total ram usage:        2 bytes
  5853 ;; Hardware stack levels used:    1
  5854 ;; This function calls:
  5855 ;;		Nothing
  5856 ;; This function is called by:
  5857 ;;		_hcsr04_read_filtered
  5858 ;;		_execute_part2_radar
  5859 ;; This function uses a non-reentrant model
  5860 ;;
  5861                           
  5862                           	psect	text37
  5863  0022C0                     __ptext37:
  5864                           	opt stack 0
  5865  0022C0                     _delay_ms_var:
  5866                           	opt stack 28
  5867                           
  5868                           ;ourProject.c: 312: while(ms > 0U) {
  5869                           
  5870                           ;incstack = 0
  5871  0022C0  D008               	goto	l313
  5872  0022C2                     
  5873                           ;ourProject.c: 313: _delay((unsigned long)((1)*(4000000UL/4000.0)));
  5874  0022C2  0EC8               	movlw	200
  5875  0022C4                     u1967:
  5876  0022C4  D000               	nop2	
  5877  0022C6  2EE8               	decfsz	wreg,f,c
  5878  0022C8  D7FD               	bra	u1967
  5879                           
  5880                           ;ourProject.c: 314: ms--;
  5881  0022CA  0601               	decf	delay_ms_var@ms,f,c
  5882  0022CC  A0D8               	btfss	status,0,c
  5883  0022CE  0602               	decf	delay_ms_var@ms+1,f,c
  5884  0022D0  0004               	clrwdt		;# 
  5885  0022D2                     l313:
  5886  0022D2  5001               	movf	delay_ms_var@ms,w,c
  5887  0022D4  1002               	iorwf	delay_ms_var@ms+1,w,c
  5888  0022D6  B4D8               	btfsc	status,2,c
  5889  0022D8  0012               	return	
  5890  0022DA  D7F3               	goto	l314
  5891  0022DC                     __end_of_delay_ms_var:
  5892                           	opt stack 0
  5893                           tblptru	equ	0xFF8
  5894                           tblptrh	equ	0xFF7
  5895                           tblptrl	equ	0xFF6
  5896                           tablat	equ	0xFF5
  5897                           prodh	equ	0xFF4
  5898                           prodl	equ	0xFF3
  5899                           intcon	equ	0xFF2
  5900                           intcon2	equ	0xFF1
  5901                           indf0	equ	0xFEF
  5902                           postinc0	equ	0xFEE
  5903                           fsr0h	equ	0xFEA
  5904                           fsr0l	equ	0xFE9
  5905                           wreg	equ	0xFE8
  5906                           postinc1	equ	0xFE6
  5907                           postdec1	equ	0xFE5
  5908                           fsr1h	equ	0xFE2
  5909                           fsr1l	equ	0xFE1
  5910                           indf2	equ	0xFDF
  5911                           postinc2	equ	0xFDE
  5912                           postdec2	equ	0xFDD
  5913                           fsr2h	equ	0xFDA
  5914                           fsr2l	equ	0xFD9
  5915                           status	equ	0xFD8
  5916                           
  5917 ;; *************** function _buzzer_beep *****************
  5918 ;; Defined at:
  5919 ;;		line 396 in file "ourProject.c"
  5920 ;; Parameters:    Size  Location     Type
  5921 ;;  cycles          1    wreg     unsigned char 
  5922 ;; Auto vars:     Size  Location     Type
  5923 ;;  cycles          1    0[COMRAM] unsigned char 
  5924 ;;  i               1    1[COMRAM] unsigned char 
  5925 ;; Return value:  Size  Location     Type
  5926 ;;                  1    wreg      void 
  5927 ;; Registers used:
  5928 ;;		wreg, status,2, status,0, cstack
  5929 ;; Tracked objects:
  5930 ;;		On entry : 0/0
  5931 ;;		On exit  : 0/0
  5932 ;;		Unchanged: 0/0
  5933 ;; Data sizes:     COMRAM   BANK0   BANK1   BANK2   BANK3   BANK4   BANK5   BANK6   BANK7   BANK8   BANK9  BANK10  BANK1
      +1  BANK12  BANK13  BANK14  BANK15
  5934 ;;      Params:         0       0       0       0       0       0       0       0       0       0       0       0       
      +0       0       0       0       0
  5935 ;;      Locals:         2       0       0       0       0       0       0       0       0       0       0       0       
      +0       0       0       0       0
  5936 ;;      Temps:          0       0       0       0       0       0       0       0       0       0       0       0       
      +0       0       0       0       0
  5937 ;;      Totals:         2       0       0       0       0       0       0       0       0       0       0       0       
      +0       0       0       0       0
  5938 ;;Total ram usage:        2 bytes
  5939 ;; Hardware stack levels used:    1
  5940 ;; This function calls:
  5941 ;;		Nothing
  5942 ;; This function is called by:
  5943 ;;		_execute_part2_radar
  5944 ;; This function uses a non-reentrant model
  5945 ;;
  5946                           
  5947                           	psect	text38
  5948  002182                     __ptext38:
  5949                           	opt stack 0
  5950  002182                     _buzzer_beep:
  5951                           	opt stack 29
  5952                           
  5953                           ;incstack = 0
  5954                           ;buzzer_beep@cycles stored from wreg
  5955  002182  6E01               	movwf	buzzer_beep@cycles,c
  5956                           
  5957                           ;ourProject.c: 397: unsigned char i;
  5958                           ;ourProject.c: 399: for(i = 0; i < cycles; i++) {
  5959  002184  0E00               	movlw	0
  5960  002186  6E02               	movwf	buzzer_beep@i,c
  5961  002188  D00C               	goto	l355
  5962  00218A                     l356:
  5963                           
  5964                           ;ourProject.c: 400: LATCbits.LATC2 = 1;
  5965  00218A  848B               	bsf	3979,2,c	;volatile
  5966                           
  5967                           ;ourProject.c: 401: _delay((unsigned long)((500)*(4000000UL/4000000.0)));
  5968  00218C  0EA6               	movlw	166
  5969  00218E                     u1977:
  5970  00218E  2EE8               	decfsz	wreg,f,c
  5971  002190  D7FE               	bra	u1977
  5972  002192  D000               	nop2	
  5973                           
  5974                           ;ourProject.c: 402: LATCbits.LATC2 = 0;
  5975  002194  948B               	bcf	3979,2,c	;volatile
  5976                           
  5977                           ;ourProject.c: 403: _delay((unsigned long)((500)*(4000000UL/4000000.0)));
  5978  002196  0EA6               	movlw	166
  5979  002198                     u1987:
  5980  002198  2EE8               	decfsz	wreg,f,c
  5981  00219A  D7FE               	bra	u1987
  5982  00219C  D000               	nop2	
  5983  00219E  0004               	clrwdt		;# 
  5984  0021A0  2A02               	incf	buzzer_beep@i,f,c
  5985  0021A2                     l355:
  5986  0021A2  5001               	movf	buzzer_beep@cycles,w,c
  5987  0021A4  5C02               	subwf	buzzer_beep@i,w,c
  5988  0021A6  A0D8               	btfss	status,0,c
  5989  0021A8  D7F0               	goto	l356
  5990                           
  5991                           ;ourProject.c: 405: }
  5992                           ;ourProject.c: 407: LATCbits.LATC2 = 0;
  5993  0021AA  948B               	bcf	3979,2,c	;volatile
  5994  0021AC  0012               	return		;funcret
  5995  0021AE                     __end_of_buzzer_beep:
  5996                           	opt stack 0
  5997                           tblptru	equ	0xFF8
  5998                           tblptrh	equ	0xFF7
  5999                           tblptrl	equ	0xFF6
  6000                           tablat	equ	0xFF5
  6001                           prodh	equ	0xFF4
  6002                           prodl	equ	0xFF3
  6003                           intcon	equ	0xFF2
  6004                           intcon2	equ	0xFF1
  6005                           indf0	equ	0xFEF
  6006                           postinc0	equ	0xFEE
  6007                           fsr0h	equ	0xFEA
  6008                           fsr0l	equ	0xFE9
  6009                           wreg	equ	0xFE8
  6010                           postinc1	equ	0xFE6
  6011                           postdec1	equ	0xFE5
  6012                           fsr1h	equ	0xFE2
  6013                           fsr1l	equ	0xFE1
  6014                           indf2	equ	0xFDF
  6015                           postinc2	equ	0xFDE
  6016                           postdec2	equ	0xFDD
  6017                           fsr2h	equ	0xFDA
  6018                           fsr2l	equ	0xFD9
  6019                           status	equ	0xFD8
  6020                           
  6021 ;; *************** function _adc_raw_to_mv *****************
  6022 ;; Defined at:
  6023 ;;		line 371 in file "ourProject.c"
  6024 ;; Parameters:    Size  Location     Type
  6025 ;;  raw_value       2   25[COMRAM] unsigned int 
  6026 ;; Auto vars:     Size  Location     Type
  6027 ;;		None
  6028 ;; Return value:  Size  Location     Type
  6029 ;;                  2   25[COMRAM] unsigned int 
  6030 ;; Registers used:
  6031 ;;		wreg, status,2, status,0, cstack
  6032 ;; Tracked objects:
  6033 ;;		On entry : 0/0
  6034 ;;		On exit  : 0/0
  6035 ;;		Unchanged: 0/0
  6036 ;; Data sizes:     COMRAM   BANK0   BANK1   BANK2   BANK3   BANK4   BANK5   BANK6   BANK7   BANK8   BANK9  BANK10  BANK1
      +1  BANK12  BANK13  BANK14  BANK15
  6037 ;;      Params:         2       0       0       0       0       0       0       0       0       0       0       0       
      +0       0       0       0       0
  6038 ;;      Locals:         0       0       0       0       0       0       0       0       0       0       0       0       
      +0       0       0       0       0
  6039 ;;      Temps:          0       0       0       0       0       0       0       0       0       0       0       0       
      +0       0       0       0       0
  6040 ;;      Totals:         2       0       0       0       0       0       0       0       0       0       0       0       
      +0       0       0       0       0
  6041 ;;Total ram usage:        2 bytes
  6042 ;; Hardware stack levels used:    1
  6043 ;; Hardware stack levels required when called:    1
  6044 ;; This function calls:
  6045 ;;		___lldiv
  6046 ;;		___lmul
  6047 ;; This function is called by:
  6048 ;;		_main
  6049 ;; This function uses a non-reentrant model
  6050 ;;
  6051                           
  6052                           	psect	text39
  6053  001DBE                     __ptext39:
  6054                           	opt stack 0
  6055  001DBE                     _adc_raw_to_mv:
  6056                           	opt stack 29
  6057                           
  6058                           ;ourProject.c: 372: return (unsigned int)((((unsigned long)raw_value * 5000UL) + 511UL) 
      +                          / 1023UL);
  6059                           
  6060                           ;incstack = 0
  6061  001DBE  C01A  F001         	movff	adc_raw_to_mv@raw_value,___lmul@multiplier
  6062  001DC2  C01B  F002         	movff	adc_raw_to_mv@raw_value+1,___lmul@multiplier+1
  6063  001DC6  6A03               	clrf	___lmul@multiplier+2,c
  6064  001DC8  6A04               	clrf	___lmul@multiplier+3,c
  6065  001DCA  0E88               	movlw	136
  6066  001DCC  6E05               	movwf	___lmul@multiplicand,c
  6067  001DCE  0E13               	movlw	19
  6068  001DD0  6E06               	movwf	___lmul@multiplicand+1,c
  6069  001DD2  0E00               	movlw	0
  6070  001DD4  6E07               	movwf	___lmul@multiplicand+2,c
  6071  001DD6  0E00               	movlw	0
  6072  001DD8  6E08               	movwf	___lmul@multiplicand+3,c
  6073  001DDA  EC0A  F00F         	call	___lmul	;wreg free
  6074  001DDE  0EFF               	movlw	255
  6075  001DE0  2401               	addwf	?___lmul,w,c
  6076  001DE2  6E0D               	movwf	___lldiv@dividend,c
  6077  001DE4  0E01               	movlw	1
  6078  001DE6  2002               	addwfc	?___lmul+1,w,c
  6079  001DE8  6E0E               	movwf	___lldiv@dividend+1,c
  6080  001DEA  0E00               	movlw	0
  6081  001DEC  2003               	addwfc	?___lmul+2,w,c
  6082  001DEE  6E0F               	movwf	___lldiv@dividend+2,c
  6083  001DF0  0E00               	movlw	0
  6084  001DF2  2004               	addwfc	?___lmul+3,w,c
  6085  001DF4  6E10               	movwf	___lldiv@dividend+3,c
  6086  001DF6  0EFF               	movlw	255
  6087  001DF8  6E11               	movwf	___lldiv@divisor,c
  6088  001DFA  0E03               	movlw	3
  6089  001DFC  6E12               	movwf	___lldiv@divisor+1,c
  6090  001DFE  0E00               	movlw	0
  6091  001E00  6E13               	movwf	___lldiv@divisor+2,c
  6092  001E02  0E00               	movlw	0
  6093  001E04  6E14               	movwf	___lldiv@divisor+3,c
  6094  001E06  EC84  F00D         	call	___lldiv	;wreg free
  6095  001E0A  C00D  F01A         	movff	?___lldiv,?_adc_raw_to_mv
  6096  001E0E  C00E  F01B         	movff	?___lldiv+1,?_adc_raw_to_mv+1
  6097  001E12  0012               	return	
  6098  001E14                     __end_of_adc_raw_to_mv:
  6099                           	opt stack 0
  6100                           tblptru	equ	0xFF8
  6101                           tblptrh	equ	0xFF7
  6102                           tblptrl	equ	0xFF6
  6103                           tablat	equ	0xFF5
  6104                           prodh	equ	0xFF4
  6105                           prodl	equ	0xFF3
  6106                           intcon	equ	0xFF2
  6107                           intcon2	equ	0xFF1
  6108                           indf0	equ	0xFEF
  6109                           postinc0	equ	0xFEE
  6110                           fsr0h	equ	0xFEA
  6111                           fsr0l	equ	0xFE9
  6112                           wreg	equ	0xFE8
  6113                           postinc1	equ	0xFE6
  6114                           postdec1	equ	0xFE5
  6115                           fsr1h	equ	0xFE2
  6116                           fsr1l	equ	0xFE1
  6117                           indf2	equ	0xFDF
  6118                           postinc2	equ	0xFDE
  6119                           postdec2	equ	0xFDD
  6120                           fsr2h	equ	0xFDA
  6121                           fsr2l	equ	0xFD9
  6122                           status	equ	0xFD8
  6123                           
  6124 ;; *************** function ___lmul *****************
  6125 ;; Defined at:
  6126 ;;		line 15 in file "C:\Program Files (x86)\Microchip\xc8\v1.45\sources\common\Umul32.c"
  6127 ;; Parameters:    Size  Location     Type
  6128 ;;  multiplier      4    0[COMRAM] unsigned long 
  6129 ;;  multiplicand    4    4[COMRAM] unsigned long 
  6130 ;; Auto vars:     Size  Location     Type
  6131 ;;  product         4    8[COMRAM] unsigned long 
  6132 ;; Return value:  Size  Location     Type
  6133 ;;                  4    0[COMRAM] unsigned long 
  6134 ;; Registers used:
  6135 ;;		wreg, status,2, status,0
  6136 ;; Tracked objects:
  6137 ;;		On entry : 0/0
  6138 ;;		On exit  : 0/0
  6139 ;;		Unchanged: 0/0
  6140 ;; Data sizes:     COMRAM   BANK0   BANK1   BANK2   BANK3   BANK4   BANK5   BANK6   BANK7   BANK8   BANK9  BANK10  BANK1
      +1  BANK12  BANK13  BANK14  BANK15
  6141 ;;      Params:         8       0       0       0       0       0       0       0       0       0       0       0       
      +0       0       0       0       0
  6142 ;;      Locals:         4       0       0       0       0       0       0       0       0       0       0       0       
      +0       0       0       0       0
  6143 ;;      Temps:          0       0       0       0       0       0       0       0       0       0       0       0       
      +0       0       0       0       0
  6144 ;;      Totals:        12       0       0       0       0       0       0       0       0       0       0       0       
      +0       0       0       0       0
  6145 ;;Total ram usage:       12 bytes
  6146 ;; Hardware stack levels used:    1
  6147 ;; This function calls:
  6148 ;;		Nothing
  6149 ;; This function is called by:
  6150 ;;		_adc_raw_to_mv
  6151 ;;		_lm35_celsius_x10
  6152 ;;		_servo_angle_to_us
  6153 ;; This function uses a non-reentrant model
  6154 ;;
  6155                           
  6156                           	psect	text40
  6157  001E14                     __ptext40:
  6158                           	opt stack 0
  6159  001E14                     ___lmul:
  6160                           	opt stack 28
  6161                           
  6162                           ;incstack = 0
  6163  001E14  0E00               	movlw	0
  6164  001E16  6E09               	movwf	___lmul@product,c
  6165  001E18  0E00               	movlw	0
  6166  001E1A  6E0A               	movwf	___lmul@product+1,c
  6167  001E1C  0E00               	movlw	0
  6168  001E1E  6E0B               	movwf	___lmul@product+2,c
  6169  001E20  0E00               	movlw	0
  6170  001E22  6E0C               	movwf	___lmul@product+3,c
  6171  001E24  A001               	btfss	___lmul@multiplier,0,c
  6172  001E26  D008               	goto	l471
  6173  001E28  5005               	movf	___lmul@multiplicand,w,c
  6174  001E2A  2609               	addwf	___lmul@product,f,c
  6175  001E2C  5006               	movf	___lmul@multiplicand+1,w,c
  6176  001E2E  220A               	addwfc	___lmul@product+1,f,c
  6177  001E30  5007               	movf	___lmul@multiplicand+2,w,c
  6178  001E32  220B               	addwfc	___lmul@product+2,f,c
  6179  001E34  5008               	movf	___lmul@multiplicand+3,w,c
  6180  001E36  220C               	addwfc	___lmul@product+3,f,c
  6181  001E38                     l471:
  6182  001E38  90D8               	bcf	status,0,c
  6183  001E3A  3605               	rlcf	___lmul@multiplicand,f,c
  6184  001E3C  3606               	rlcf	___lmul@multiplicand+1,f,c
  6185  001E3E  3607               	rlcf	___lmul@multiplicand+2,f,c
  6186  001E40  3608               	rlcf	___lmul@multiplicand+3,f,c
  6187  001E42  90D8               	bcf	status,0,c
  6188  001E44  3204               	rrcf	___lmul@multiplier+3,f,c
  6189  001E46  3203               	rrcf	___lmul@multiplier+2,f,c
  6190  001E48  3202               	rrcf	___lmul@multiplier+1,f,c
  6191  001E4A  3201               	rrcf	___lmul@multiplier,f,c
  6192  001E4C  5001               	movf	___lmul@multiplier,w,c
  6193  001E4E  1002               	iorwf	___lmul@multiplier+1,w,c
  6194  001E50  1003               	iorwf	___lmul@multiplier+2,w,c
  6195  001E52  1004               	iorwf	___lmul@multiplier+3,w,c
  6196  001E54  A4D8               	btfss	status,2,c
  6197  001E56  D7E6               	goto	l470
  6198  001E58  C009  F001         	movff	___lmul@product,?___lmul
  6199  001E5C  C00A  F002         	movff	___lmul@product+1,?___lmul+1
  6200  001E60  C00B  F003         	movff	___lmul@product+2,?___lmul+2
  6201  001E64  C00C  F004         	movff	___lmul@product+3,?___lmul+3
  6202  001E68  0012               	return		;funcret
  6203  001E6A                     __end_of___lmul:
  6204                           	opt stack 0
  6205                           tblptru	equ	0xFF8
  6206                           tblptrh	equ	0xFF7
  6207                           tblptrl	equ	0xFF6
  6208                           tablat	equ	0xFF5
  6209                           prodh	equ	0xFF4
  6210                           prodl	equ	0xFF3
  6211                           intcon	equ	0xFF2
  6212                           intcon2	equ	0xFF1
  6213                           indf0	equ	0xFEF
  6214                           postinc0	equ	0xFEE
  6215                           fsr0h	equ	0xFEA
  6216                           fsr0l	equ	0xFE9
  6217                           wreg	equ	0xFE8
  6218                           postinc1	equ	0xFE6
  6219                           postdec1	equ	0xFE5
  6220                           fsr1h	equ	0xFE2
  6221                           fsr1l	equ	0xFE1
  6222                           indf2	equ	0xFDF
  6223                           postinc2	equ	0xFDE
  6224                           postdec2	equ	0xFDD
  6225                           fsr2h	equ	0xFDA
  6226                           fsr2l	equ	0xFD9
  6227                           status	equ	0xFD8
  6228                           
  6229 ;; *************** function _adc_average_raw *****************
  6230 ;; Defined at:
  6231 ;;		line 353 in file "ourProject.c"
  6232 ;; Parameters:    Size  Location     Type
  6233 ;;  channel         1    wreg     unsigned char 
  6234 ;;  samples         1   25[COMRAM] unsigned char 
  6235 ;; Auto vars:     Size  Location     Type
  6236 ;;  channel         1   33[COMRAM] unsigned char 
  6237 ;;  sum             4   28[COMRAM] unsigned long 
  6238 ;;  i               1   32[COMRAM] unsigned char 
  6239 ;; Return value:  Size  Location     Type
  6240 ;;                  2   25[COMRAM] unsigned int 
  6241 ;; Registers used:
  6242 ;;		wreg, status,2, status,0, cstack
  6243 ;; Tracked objects:
  6244 ;;		On entry : 0/0
  6245 ;;		On exit  : 0/0
  6246 ;;		Unchanged: 0/0
  6247 ;; Data sizes:     COMRAM   BANK0   BANK1   BANK2   BANK3   BANK4   BANK5   BANK6   BANK7   BANK8   BANK9  BANK10  BANK1
      +1  BANK12  BANK13  BANK14  BANK15
  6248 ;;      Params:         2       0       0       0       0       0       0       0       0       0       0       0       
      +0       0       0       0       0
  6249 ;;      Locals:         6       0       0       0       0       0       0       0       0       0       0       0       
      +0       0       0       0       0
  6250 ;;      Temps:          1       0       0       0       0       0       0       0       0       0       0       0       
      +0       0       0       0       0
  6251 ;;      Totals:         9       0       0       0       0       0       0       0       0       0       0       0       
      +0       0       0       0       0
  6252 ;;Total ram usage:        9 bytes
  6253 ;; Hardware stack levels used:    1
  6254 ;; Hardware stack levels required when called:    1
  6255 ;; This function calls:
  6256 ;;		___lldiv
  6257 ;;		_delay_ms
  6258 ;;		_readADC_raw
  6259 ;; This function is called by:
  6260 ;;		_main
  6261 ;; This function uses a non-reentrant model
  6262 ;;
  6263                           
  6264                           	psect	text41
  6265  001A7A                     __ptext41:
  6266                           	opt stack 0
  6267  001A7A                     _adc_average_raw:
  6268                           	opt stack 29
  6269                           
  6270                           ;incstack = 0
  6271                           ;adc_average_raw@channel stored from wreg
  6272  001A7A  6E22               	movwf	adc_average_raw@channel,c
  6273                           
  6274                           ;ourProject.c: 354: unsigned long sum;
  6275                           ;ourProject.c: 355: unsigned char i;
  6276                           ;ourProject.c: 357: sum = 0;
  6277  001A7C  0E00               	movlw	0
  6278  001A7E  6E1D               	movwf	adc_average_raw@sum,c
  6279  001A80  0E00               	movlw	0
  6280  001A82  6E1E               	movwf	adc_average_raw@sum+1,c
  6281  001A84  0E00               	movlw	0
  6282  001A86  6E1F               	movwf	adc_average_raw@sum+2,c
  6283  001A88  0E00               	movlw	0
  6284  001A8A  6E20               	movwf	adc_average_raw@sum+3,c
  6285                           
  6286                           ;ourProject.c: 360: readADC_raw(channel);
  6287  001A8C  5022               	movf	adc_average_raw@channel,w,c
  6288  001A8E  EC63  F010         	call	_readADC_raw
  6289                           
  6290                           ;ourProject.c: 361: delay_ms(2);
  6291  001A92  0E00               	movlw	0
  6292  001A94  6E02               	movwf	delay_ms@n+1,c
  6293  001A96  0E02               	movlw	2
  6294  001A98  6E01               	movwf	delay_ms@n,c
  6295  001A9A  ECEA  F010         	call	_delay_ms	;wreg free
  6296                           
  6297                           ;ourProject.c: 363: for(i = 0; i < samples; i++) {
  6298  001A9E  0E00               	movlw	0
  6299  001AA0  6E21               	movwf	adc_average_raw@i,c
  6300  001AA2  D012               	goto	l333
  6301  001AA4                     
  6302                           ;ourProject.c: 364: sum += (unsigned int)readADC_raw(channel);
  6303  001AA4  5022               	movf	adc_average_raw@channel,w,c
  6304  001AA6  EC63  F010         	call	_readADC_raw
  6305  001AAA  5001               	movf	?_readADC_raw,w,c
  6306  001AAC  261D               	addwf	adc_average_raw@sum,f,c
  6307  001AAE  5002               	movf	?_readADC_raw+1,w,c
  6308  001AB0  221E               	addwfc	adc_average_raw@sum+1,f,c
  6309  001AB2  0E00               	movlw	0
  6310  001AB4  221F               	addwfc	adc_average_raw@sum+2,f,c
  6311  001AB6  0E00               	movlw	0
  6312  001AB8  2220               	addwfc	adc_average_raw@sum+3,f,c
  6313                           
  6314                           ;ourProject.c: 365: delay_ms(2);
  6315  001ABA  0E00               	movlw	0
  6316  001ABC  6E02               	movwf	delay_ms@n+1,c
  6317  001ABE  0E02               	movlw	2
  6318  001AC0  6E01               	movwf	delay_ms@n,c
  6319  001AC2  ECEA  F010         	call	_delay_ms	;wreg free
  6320  001AC6  2A21               	incf	adc_average_raw@i,f,c
  6321  001AC8                     l333:
  6322  001AC8  501A               	movf	adc_average_raw@samples,w,c
  6323  001ACA  5C21               	subwf	adc_average_raw@i,w,c
  6324  001ACC  A0D8               	btfss	status,0,c
  6325  001ACE  D7EA               	goto	l334
  6326                           
  6327                           ;ourProject.c: 366: }
  6328                           ;ourProject.c: 368: return (unsigned int)((sum + (samples / 2U)) / samples);
  6329  001AD0  C01A  F01C         	movff	adc_average_raw@samples,??_adc_average_raw
  6330  001AD4  90D8               	bcf	status,0,c
  6331  001AD6  321C               	rrcf	??_adc_average_raw,f,c
  6332  001AD8  501C               	movf	??_adc_average_raw,w,c
  6333  001ADA  241D               	addwf	adc_average_raw@sum,w,c
  6334  001ADC  6E0D               	movwf	___lldiv@dividend,c
  6335  001ADE  0E00               	movlw	0
  6336  001AE0  201E               	addwfc	adc_average_raw@sum+1,w,c
  6337  001AE2  6E0E               	movwf	___lldiv@dividend+1,c
  6338  001AE4  0E00               	movlw	0
  6339  001AE6  201F               	addwfc	adc_average_raw@sum+2,w,c
  6340  001AE8  6E0F               	movwf	___lldiv@dividend+2,c
  6341  001AEA  0E00               	movlw	0
  6342  001AEC  2020               	addwfc	adc_average_raw@sum+3,w,c
  6343  001AEE  6E10               	movwf	___lldiv@dividend+3,c
  6344  001AF0  501A               	movf	adc_average_raw@samples,w,c
  6345  001AF2  6E11               	movwf	___lldiv@divisor,c
  6346  001AF4  6A12               	clrf	___lldiv@divisor+1,c
  6347  001AF6  6A13               	clrf	___lldiv@divisor+2,c
  6348  001AF8  6A14               	clrf	___lldiv@divisor+3,c
  6349  001AFA  EC84  F00D         	call	___lldiv	;wreg free
  6350  001AFE  C00D  F01A         	movff	?___lldiv,?_adc_average_raw
  6351  001B02  C00E  F01B         	movff	?___lldiv+1,?_adc_average_raw+1
  6352  001B06  0012               	return	
  6353  001B08                     __end_of_adc_average_raw:
  6354                           	opt stack 0
  6355                           tblptru	equ	0xFF8
  6356                           tblptrh	equ	0xFF7
  6357                           tblptrl	equ	0xFF6
  6358                           tablat	equ	0xFF5
  6359                           prodh	equ	0xFF4
  6360                           prodl	equ	0xFF3
  6361                           intcon	equ	0xFF2
  6362                           intcon2	equ	0xFF1
  6363                           indf0	equ	0xFEF
  6364                           postinc0	equ	0xFEE
  6365                           fsr0h	equ	0xFEA
  6366                           fsr0l	equ	0xFE9
  6367                           wreg	equ	0xFE8
  6368                           postinc1	equ	0xFE6
  6369                           postdec1	equ	0xFE5
  6370                           fsr1h	equ	0xFE2
  6371                           fsr1l	equ	0xFE1
  6372                           indf2	equ	0xFDF
  6373                           postinc2	equ	0xFDE
  6374                           postdec2	equ	0xFDD
  6375                           fsr2h	equ	0xFDA
  6376                           fsr2l	equ	0xFD9
  6377                           status	equ	0xFD8
  6378                           
  6379 ;; *************** function _readADC_raw *****************
  6380 ;; Defined at:
  6381 ;;		line 15 in file "my_adc.c"
  6382 ;; Parameters:    Size  Location     Type
  6383 ;;  channel         1    wreg     unsigned char 
  6384 ;; Auto vars:     Size  Location     Type
  6385 ;;  channel         1    6[COMRAM] unsigned char 
  6386 ;;  raw_value       2    4[COMRAM] unsigned int 
  6387 ;; Return value:  Size  Location     Type
  6388 ;;                  2    0[COMRAM] int 
  6389 ;; Registers used:
  6390 ;;		wreg, status,2, status,0
  6391 ;; Tracked objects:
  6392 ;;		On entry : 0/0
  6393 ;;		On exit  : 0/0
  6394 ;;		Unchanged: 0/0
  6395 ;; Data sizes:     COMRAM   BANK0   BANK1   BANK2   BANK3   BANK4   BANK5   BANK6   BANK7   BANK8   BANK9  BANK10  BANK1
      +1  BANK12  BANK13  BANK14  BANK15
  6396 ;;      Params:         2       0       0       0       0       0       0       0       0       0       0       0       
      +0       0       0       0       0
  6397 ;;      Locals:         3       0       0       0       0       0       0       0       0       0       0       0       
      +0       0       0       0       0
  6398 ;;      Temps:          2       0       0       0       0       0       0       0       0       0       0       0       
      +0       0       0       0       0
  6399 ;;      Totals:         7       0       0       0       0       0       0       0       0       0       0       0       
      +0       0       0       0       0
  6400 ;;Total ram usage:        7 bytes
  6401 ;; Hardware stack levels used:    1
  6402 ;; This function calls:
  6403 ;;		Nothing
  6404 ;; This function is called by:
  6405 ;;		_adc_average_raw
  6406 ;;		_readADC_voltage
  6407 ;; This function uses a non-reentrant model
  6408 ;;
  6409                           
  6410                           	psect	text42
  6411  0020C6                     __ptext42:
  6412                           	opt stack 0
  6413  0020C6                     _readADC_raw:
  6414                           	opt stack 29
  6415                           
  6416                           ;incstack = 0
  6417                           ;readADC_raw@channel stored from wreg
  6418  0020C6  6E07               	movwf	readADC_raw@channel,c
  6419                           
  6420                           ;my_adc.c: 17: unsigned int raw_value;
  6421                           ;my_adc.c: 19: ADCON0bits.CHS = channel;
  6422  0020C8  C007  F003         	movff	readADC_raw@channel,??_readADC_raw
  6423  0020CC  4603               	rlncf	??_readADC_raw,f,c
  6424  0020CE  4603               	rlncf	??_readADC_raw,f,c
  6425  0020D0  50C2               	movf	4034,w,c	;volatile
  6426  0020D2  1803               	xorwf	??_readADC_raw,w,c
  6427  0020D4  0BC3               	andlw	-61
  6428  0020D6  1803               	xorwf	??_readADC_raw,w,c
  6429  0020D8  6EC2               	movwf	4034,c	;volatile
  6430                           
  6431                           ;my_adc.c: 20: ADCON0bits.GO = 1;
  6432  0020DA  82C2               	bsf	4034,1,c	;volatile
  6433                           
  6434                           ;my_adc.c: 22: while(ADCON0bits.GO) asm(" clrwdt");
  6435  0020DC  D001               	goto	l81
  6436  0020DE                     l82:
  6437  0020DE  0004               	clrwdt		;# 
  6438  0020E0                     l81:
  6439  0020E0  B2C2               	btfsc	4034,1,c	;volatile
  6440  0020E2  D7FD               	goto	l82
  6441                           
  6442                           ;my_adc.c: 24: raw_value = ((unsigned int)ADRESH << 8) | ADRESL;
  6443  0020E4  50C4               	movf	4036,w,c	;volatile
  6444  0020E6  6E03               	movwf	??_readADC_raw& (0+255),c
  6445  0020E8  50C3               	movf	4035,w,c	;volatile
  6446  0020EA  6E05               	movwf	readADC_raw@raw_value,c
  6447  0020EC  C003  F006         	movff	??_readADC_raw,readADC_raw@raw_value+1
  6448                           
  6449                           ;my_adc.c: 25: return raw_value;
  6450  0020F0  C005  F001         	movff	readADC_raw@raw_value,?_readADC_raw
  6451  0020F4  C006  F002         	movff	readADC_raw@raw_value+1,?_readADC_raw+1
  6452  0020F8  0012               	return	
  6453  0020FA                     __end_of_readADC_raw:
  6454                           	opt stack 0
  6455                           tblptru	equ	0xFF8
  6456                           tblptrh	equ	0xFF7
  6457                           tblptrl	equ	0xFF6
  6458                           tablat	equ	0xFF5
  6459                           prodh	equ	0xFF4
  6460                           prodl	equ	0xFF3
  6461                           intcon	equ	0xFF2
  6462                           intcon2	equ	0xFF1
  6463                           indf0	equ	0xFEF
  6464                           postinc0	equ	0xFEE
  6465                           fsr0h	equ	0xFEA
  6466                           fsr0l	equ	0xFE9
  6467                           wreg	equ	0xFE8
  6468                           postinc1	equ	0xFE6
  6469                           postdec1	equ	0xFE5
  6470                           fsr1h	equ	0xFE2
  6471                           fsr1l	equ	0xFE1
  6472                           indf2	equ	0xFDF
  6473                           postinc2	equ	0xFDE
  6474                           postdec2	equ	0xFDD
  6475                           fsr2h	equ	0xFDA
  6476                           fsr2l	equ	0xFD9
  6477                           status	equ	0xFD8
  6478                           
  6479 ;; *************** function _delay_ms *****************
  6480 ;; Defined at:
  6481 ;;		line 12 in file "lcd_x8.c"
  6482 ;; Parameters:    Size  Location     Type
  6483 ;;  n               2    0[COMRAM] unsigned int 
  6484 ;; Auto vars:     Size  Location     Type
  6485 ;;  x               2    2[COMRAM] int 
  6486 ;; Return value:  Size  Location     Type
  6487 ;;                  1    wreg      void 
  6488 ;; Registers used:
  6489 ;;		wreg, status,2, status,0
  6490 ;; Tracked objects:
  6491 ;;		On entry : 0/0
  6492 ;;		On exit  : 0/0
  6493 ;;		Unchanged: 0/0
  6494 ;; Data sizes:     COMRAM   BANK0   BANK1   BANK2   BANK3   BANK4   BANK5   BANK6   BANK7   BANK8   BANK9  BANK10  BANK1
      +1  BANK12  BANK13  BANK14  BANK15
  6495 ;;      Params:         2       0       0       0       0       0       0       0       0       0       0       0       
      +0       0       0       0       0
  6496 ;;      Locals:         2       0       0       0       0       0       0       0       0       0       0       0       
      +0       0       0       0       0
  6497 ;;      Temps:          0       0       0       0       0       0       0       0       0       0       0       0       
      +0       0       0       0       0
  6498 ;;      Totals:         4       0       0       0       0       0       0       0       0       0       0       0       
      +0       0       0       0       0
  6499 ;;Total ram usage:        4 bytes
  6500 ;; Hardware stack levels used:    1
  6501 ;; This function calls:
  6502 ;;		Nothing
  6503 ;; This function is called by:
  6504 ;;		_lcd_send_byte
  6505 ;;		_lcd_init
  6506 ;;		_lcd_putc
  6507 ;;		_soundBuzzer
  6508 ;;		_main
  6509 ;;		_adc_average_raw
  6510 ;; This function uses a non-reentrant model
  6511 ;;
  6512                           
  6513                           	psect	text43
  6514  0021D4                     __ptext43:
  6515                           	opt stack 0
  6516  0021D4                     _delay_ms:
  6517                           	opt stack 29
  6518                           
  6519                           ;lcd_x8.c: 13: int x;
  6520                           ;lcd_x8.c: 14: for (x = 0; x <= n; x++) {
  6521                           
  6522                           ;incstack = 0
  6523  0021D4  0E00               	movlw	0
  6524  0021D6  6E04               	movwf	delay_ms@x+1,c
  6525  0021D8  0E00               	movlw	0
  6526  0021DA  6E03               	movwf	delay_ms@x,c
  6527  0021DC  D007               	goto	l9
  6528  0021DE                     
  6529                           ;lcd_x8.c: 15: _delaywdt((unsigned long)((1)*(4000000UL/4000.0)));
  6530  0021DE  0EC8               	movlw	200
  6531  0021E0                     u1997:
  6532  0021E0  0004               	clrwdt	
  6533  0021E2  0004               	clrwdt	
  6534  0021E4  2EE8               	decfsz	wreg,f,c
  6535  0021E6  D7FC               	bra	u1997
  6536  0021E8  4A03               	infsnz	delay_ms@x,f,c
  6537  0021EA  2A04               	incf	delay_ms@x+1,f,c
  6538  0021EC                     l9:
  6539  0021EC  5003               	movf	delay_ms@x,w,c
  6540  0021EE  5C01               	subwf	delay_ms@n,w,c
  6541  0021F0  5004               	movf	delay_ms@x+1,w,c
  6542  0021F2  5802               	subwfb	delay_ms@n+1,w,c
  6543  0021F4  A0D8               	btfss	status,0,c
  6544  0021F6  0012               	return	
  6545  0021F8  D7F2               	goto	l10
  6546  0021FA                     __end_of_delay_ms:
  6547                           	opt stack 0
  6548                           tblptru	equ	0xFF8
  6549                           tblptrh	equ	0xFF7
  6550                           tblptrl	equ	0xFF6
  6551                           tablat	equ	0xFF5
  6552                           prodh	equ	0xFF4
  6553                           prodl	equ	0xFF3
  6554                           intcon	equ	0xFF2
  6555                           intcon2	equ	0xFF1
  6556                           indf0	equ	0xFEF
  6557                           postinc0	equ	0xFEE
  6558                           fsr0h	equ	0xFEA
  6559                           fsr0l	equ	0xFE9
  6560                           wreg	equ	0xFE8
  6561                           postinc1	equ	0xFE6
  6562                           postdec1	equ	0xFE5
  6563                           fsr1h	equ	0xFE2
  6564                           fsr1l	equ	0xFE1
  6565                           indf2	equ	0xFDF
  6566                           postinc2	equ	0xFDE
  6567                           postdec2	equ	0xFDD
  6568                           fsr2h	equ	0xFDA
  6569                           fsr2l	equ	0xFD9
  6570                           status	equ	0xFD8
  6571                           
  6572 ;; *************** function ___lldiv *****************
  6573 ;; Defined at:
  6574 ;;		line 8 in file "C:\Program Files (x86)\Microchip\xc8\v1.45\sources\common\lldiv.c"
  6575 ;; Parameters:    Size  Location     Type
  6576 ;;  dividend        4   12[COMRAM] unsigned long 
  6577 ;;  divisor         4   16[COMRAM] unsigned long 
  6578 ;; Auto vars:     Size  Location     Type
  6579 ;;  quotient        4   20[COMRAM] unsigned long 
  6580 ;;  counter         1   24[COMRAM] unsigned char 
  6581 ;; Return value:  Size  Location     Type
  6582 ;;                  4   12[COMRAM] unsigned long 
  6583 ;; Registers used:
  6584 ;;		wreg, status,2, status,0
  6585 ;; Tracked objects:
  6586 ;;		On entry : 0/0
  6587 ;;		On exit  : 0/0
  6588 ;;		Unchanged: 0/0
  6589 ;; Data sizes:     COMRAM   BANK0   BANK1   BANK2   BANK3   BANK4   BANK5   BANK6   BANK7   BANK8   BANK9  BANK10  BANK1
      +1  BANK12  BANK13  BANK14  BANK15
  6590 ;;      Params:         8       0       0       0       0       0       0       0       0       0       0       0       
      +0       0       0       0       0
  6591 ;;      Locals:         5       0       0       0       0       0       0       0       0       0       0       0       
      +0       0       0       0       0
  6592 ;;      Temps:          0       0       0       0       0       0       0       0       0       0       0       0       
      +0       0       0       0       0
  6593 ;;      Totals:        13       0       0       0       0       0       0       0       0       0       0       0       
      +0       0       0       0       0
  6594 ;;Total ram usage:       13 bytes
  6595 ;; Hardware stack levels used:    1
  6596 ;; This function calls:
  6597 ;;		Nothing
  6598 ;; This function is called by:
  6599 ;;		_adc_average_raw
  6600 ;;		_adc_raw_to_mv
  6601 ;;		_lm35_celsius_x10
  6602 ;;		_servo_angle_to_us
  6603 ;; This function uses a non-reentrant model
  6604 ;;
  6605                           
  6606                           	psect	text44
  6607  001B08                     __ptext44:
  6608                           	opt stack 0
  6609  001B08                     ___lldiv:
  6610                           	opt stack 28
  6611                           
  6612                           ;incstack = 0
  6613  001B08  0E00               	movlw	0
  6614  001B0A  6E15               	movwf	___lldiv@quotient,c
  6615  001B0C  0E00               	movlw	0
  6616  001B0E  6E16               	movwf	___lldiv@quotient+1,c
  6617  001B10  0E00               	movlw	0
  6618  001B12  6E17               	movwf	___lldiv@quotient+2,c
  6619  001B14  0E00               	movlw	0
  6620  001B16  6E18               	movwf	___lldiv@quotient+3,c
  6621  001B18  5011               	movf	___lldiv@divisor,w,c
  6622  001B1A  1012               	iorwf	___lldiv@divisor+1,w,c
  6623  001B1C  1013               	iorwf	___lldiv@divisor+2,w,c
  6624  001B1E  1014               	iorwf	___lldiv@divisor+3,w,c
  6625  001B20  B4D8               	btfsc	status,2,c
  6626  001B22  D02A               	goto	l819
  6627  001B24  0E01               	movlw	1
  6628  001B26  6E19               	movwf	___lldiv@counter,c
  6629  001B28  D006               	goto	l814
  6630  001B2A  90D8               	bcf	status,0,c
  6631  001B2C  3611               	rlcf	___lldiv@divisor,f,c
  6632  001B2E  3612               	rlcf	___lldiv@divisor+1,f,c
  6633  001B30  3613               	rlcf	___lldiv@divisor+2,f,c
  6634  001B32  3614               	rlcf	___lldiv@divisor+3,f,c
  6635  001B34  2A19               	incf	___lldiv@counter,f,c
  6636  001B36                     l814:
  6637  001B36  AE14               	btfss	___lldiv@divisor+3,7,c
  6638  001B38  D7F8               	goto	l815
  6639  001B3A                     u1090:
  6640  001B3A  90D8               	bcf	status,0,c
  6641  001B3C  3615               	rlcf	___lldiv@quotient,f,c
  6642  001B3E  3616               	rlcf	___lldiv@quotient+1,f,c
  6643  001B40  3617               	rlcf	___lldiv@quotient+2,f,c
  6644  001B42  3618               	rlcf	___lldiv@quotient+3,f,c
  6645  001B44  5011               	movf	___lldiv@divisor,w,c
  6646  001B46  5C0D               	subwf	___lldiv@dividend,w,c
  6647  001B48  5012               	movf	___lldiv@divisor+1,w,c
  6648  001B4A  580E               	subwfb	___lldiv@dividend+1,w,c
  6649  001B4C  5013               	movf	___lldiv@divisor+2,w,c
  6650  001B4E  580F               	subwfb	___lldiv@dividend+2,w,c
  6651  001B50  5014               	movf	___lldiv@divisor+3,w,c
  6652  001B52  5810               	subwfb	___lldiv@dividend+3,w,c
  6653  001B54  A0D8               	btfss	status,0,c
  6654  001B56  D009               	goto	l818
  6655  001B58  5011               	movf	___lldiv@divisor,w,c
  6656  001B5A  5E0D               	subwf	___lldiv@dividend,f,c
  6657  001B5C  5012               	movf	___lldiv@divisor+1,w,c
  6658  001B5E  5A0E               	subwfb	___lldiv@dividend+1,f,c
  6659  001B60  5013               	movf	___lldiv@divisor+2,w,c
  6660  001B62  5A0F               	subwfb	___lldiv@dividend+2,f,c
  6661  001B64  5014               	movf	___lldiv@divisor+3,w,c
  6662  001B66  5A10               	subwfb	___lldiv@dividend+3,f,c
  6663  001B68  8015               	bsf	___lldiv@quotient,0,c
  6664  001B6A                     l818:
  6665  001B6A  90D8               	bcf	status,0,c
  6666  001B6C  3214               	rrcf	___lldiv@divisor+3,f,c
  6667  001B6E  3213               	rrcf	___lldiv@divisor+2,f,c
  6668  001B70  3212               	rrcf	___lldiv@divisor+1,f,c
  6669  001B72  3211               	rrcf	___lldiv@divisor,f,c
  6670  001B74  2E19               	decfsz	___lldiv@counter,f,c
  6671  001B76  D7E1               	goto	u1090
  6672  001B78                     l819:
  6673  001B78  C015  F00D         	movff	___lldiv@quotient,?___lldiv
  6674  001B7C  C016  F00E         	movff	___lldiv@quotient+1,?___lldiv+1
  6675  001B80  C017  F00F         	movff	___lldiv@quotient+2,?___lldiv+2
  6676  001B84  C018  F010         	movff	___lldiv@quotient+3,?___lldiv+3
  6677  001B88  0012               	return		;funcret
  6678  001B8A                     __end_of___lldiv:
  6679                           	opt stack 0
  6680                           tblptru	equ	0xFF8
  6681                           tblptrh	equ	0xFF7
  6682                           tblptrl	equ	0xFF6
  6683                           tablat	equ	0xFF5
  6684                           prodh	equ	0xFF4
  6685                           prodl	equ	0xFF3
  6686                           intcon	equ	0xFF2
  6687                           intcon2	equ	0xFF1
  6688                           indf0	equ	0xFEF
  6689                           postinc0	equ	0xFEE
  6690                           fsr0h	equ	0xFEA
  6691                           fsr0l	equ	0xFE9
  6692                           wreg	equ	0xFE8
  6693                           postinc1	equ	0xFE6
  6694                           postdec1	equ	0xFE5
  6695                           fsr1h	equ	0xFE2
  6696                           fsr1l	equ	0xFE1
  6697                           indf2	equ	0xFDF
  6698                           postinc2	equ	0xFDE
  6699                           postdec2	equ	0xFDD
  6700                           fsr2h	equ	0xFDA
  6701                           fsr2l	equ	0xFD9
  6702                           status	equ	0xFD8
  6703                           tblptru	equ	0xFF8
  6704                           tblptrh	equ	0xFF7
  6705                           tblptrl	equ	0xFF6
  6706                           tablat	equ	0xFF5
  6707                           prodh	equ	0xFF4
  6708                           prodl	equ	0xFF3
  6709                           intcon	equ	0xFF2
  6710                           intcon2	equ	0xFF1
  6711                           indf0	equ	0xFEF
  6712                           postinc0	equ	0xFEE
  6713                           fsr0h	equ	0xFEA
  6714                           fsr0l	equ	0xFE9
  6715                           wreg	equ	0xFE8
  6716                           postinc1	equ	0xFE6
  6717                           postdec1	equ	0xFE5
  6718                           fsr1h	equ	0xFE2
  6719                           fsr1l	equ	0xFE1
  6720                           indf2	equ	0xFDF
  6721                           postinc2	equ	0xFDE
  6722                           postdec2	equ	0xFDD
  6723                           fsr2h	equ	0xFDA
  6724                           fsr2l	equ	0xFD9
  6725                           status	equ	0xFD8
  6726                           
  6727                           	psect	rparam
  6728  0000                     tblptru	equ	0xFF8
  6729                           tblptrh	equ	0xFF7
  6730                           tblptrl	equ	0xFF6
  6731                           tablat	equ	0xFF5
  6732                           prodh	equ	0xFF4
  6733                           prodl	equ	0xFF3
  6734                           intcon	equ	0xFF2
  6735                           intcon2	equ	0xFF1
  6736                           indf0	equ	0xFEF
  6737                           postinc0	equ	0xFEE
  6738                           fsr0h	equ	0xFEA
  6739                           fsr0l	equ	0xFE9
  6740                           wreg	equ	0xFE8
  6741                           postinc1	equ	0xFE6
  6742                           postdec1	equ	0xFE5
  6743                           fsr1h	equ	0xFE2
  6744                           fsr1l	equ	0xFE1
  6745                           indf2	equ	0xFDF
  6746                           postinc2	equ	0xFDE
  6747                           postdec2	equ	0xFDD
  6748                           fsr2h	equ	0xFDA
  6749                           fsr2l	equ	0xFD9
  6750                           status	equ	0xFD8


Data Sizes:
    Strings     117
    Constant    23
    Data        5
    BSS         5
    Persistent  0
    Stack       0

Auto Spaces:
    Space          Size  Autos    Used
    COMRAM          127     81      85
    BANK0           128     53      59
    BANK1           256      0       0
    BANK2           256      0       0
    BANK3           256      0       0
    BANK4           256      0       0
    BANK5           256      0       0
    BANK6           256      0       0
    BANK7           256      0       0
    BANK8           256      0       0
    BANK9           256      0       0
    BANK10          256      0       0
    BANK11          256      0       0
    BANK12          256      0       0
    BANK13          256      0       0
    BANK14          256      0       0
    BANK15          128      0       0

Pointer List with Targets:

    sprintf@f	PTR const unsigned char  size(2) Largest target is 20
		 -> STR_9(CODE[7]), STR_8(CODE[17]), STR_5(CODE[8]), STR_4(CODE[17]), 
		 -> STR_3(CODE[10]), STR_2(CODE[20]), 

    sprintf@sp	PTR unsigned char  size(2) Largest target is 32
		 -> execute_part2_radar@Buffer(COMRAM[17]), execute_part2_radar@SerialBuffer(COMRAM[24]), main@Buffer(BANK0[32]), 

    sprintf@ap	PTR void [1] size(2) Largest target is 2
		 -> ?_sprintf(COMRAM[2]), 

    hcsr04_read_filtered@distance_cm	PTR unsigned int  size(2) Largest target is 2
		 -> execute_part2_radar@distance_cm(COMRAM[2]), 

    hcsr04_read_once@distance_cm	PTR unsigned int  size(2) Largest target is 2
		 -> hcsr04_read_filtered@reading(COMRAM[2]), 

    sort_samples@samples	PTR unsigned int  size(2) Largest target is 6
		 -> hcsr04_read_filtered@samples(COMRAM[6]), 

    send_string_no_lib@p	PTR const unsigned char  size(2) Largest target is 24
		 -> execute_part2_radar@SerialBuffer(COMRAM[24]), 

    lcd_puts@s	PTR const unsigned char  size(2) Largest target is 32
		 -> STR_10(CODE[17]), STR_7(CODE[17]), STR_6(CODE[17]), execute_part2_radar@Buffer(COMRAM[17]), 
		 -> main@Buffer(BANK0[32]), STR_1(CODE[12]), 


Critical Paths under _main in COMRAM

    _main->_execute_part2_radar
    _soundBuzzer->_delay_ms
    _lm35_celsius_x10->___lldiv
    _lcd_init->_lcd_send_byte
    _lcd_clear_line->_lcd_putc
    _execute_part2_radar->_sprintf
    _sprintf->___lwmod
    ___lwmod->___lwdiv
    _servo_set_angle->_servo_angle_to_us
    _servo_pulse_us->_delay_us_var
    _servo_angle_to_us->___lldiv
    _send_string_no_lib->_send_byte_no_lib
    _lcd_puts->_lcd_putc
    _lcd_putc->_lcd_gotoxy
    _lcd_gotoxy->_lcd_send_byte
    _lcd_send_byte->_lcd_send_nibble
    _lcd_send_nibble->_delay_cycles
    _hcsr04_read_filtered->_hcsr04_read_once
    _hcsr04_read_once->_timer1_timeout
    _timer1_timeout->_timer1_read_us
    _adc_raw_to_mv->___lldiv
    _adc_average_raw->___lldiv
    ___lldiv->___lmul

Critical Paths under _main in BANK0

    None.

Critical Paths under _main in BANK1

    None.

Critical Paths under _main in BANK2

    None.

Critical Paths under _main in BANK3

    None.

Critical Paths under _main in BANK4

    None.

Critical Paths under _main in BANK5

    None.

Critical Paths under _main in BANK6

    None.

Critical Paths under _main in BANK7

    None.

Critical Paths under _main in BANK8

    None.

Critical Paths under _main in BANK9

    None.

Critical Paths under _main in BANK10

    None.

Critical Paths under _main in BANK11

    None.

Critical Paths under _main in BANK12

    None.

Critical Paths under _main in BANK13

    None.

Critical Paths under _main in BANK14

    None.

Critical Paths under _main in BANK15

    None.

Call Graph Tables:

 ---------------------------------------------------------------------------------
 (Depth) Function   	        Calls       Base Space   Used Autos Params    Refs
 ---------------------------------------------------------------------------------
 (0) _main                                                53    53      0   65619
                                              0 BANK0     53    53      0
                            ___lwdiv
                            ___lwmod
                    _adc_average_raw
                      _adc_raw_to_mv
                           _delay_ms
                _execute_part2_radar
                            _initADC
                          _initPorts
                         _initTimer1
                  _is_byte_available
                     _lcd_clear_line
                         _lcd_gotoxy
                           _lcd_init
                           _lcd_putc
                           _lcd_puts
                   _lm35_celsius_x10
                   _read_byte_no_lib
                   _send_byte_no_lib
                    _servo_set_angle
                        _setupSerial
                        _soundBuzzer
                            _sprintf
 ---------------------------------------------------------------------------------
 (1) _soundBuzzer                                          2     2      0    1384
                                              4 COMRAM     2     2      0
                           _delay_ms
 ---------------------------------------------------------------------------------
 (1) _setupSerial                                          1     1      0       2
                                              0 COMRAM     1     1      0
 ---------------------------------------------------------------------------------
 (1) _read_byte_no_lib                                     1     1      0      23
                                              0 COMRAM     1     1      0
 ---------------------------------------------------------------------------------
 (1) _lm35_celsius_x10                                     2     0      2    1542
                                             25 COMRAM     2     0      2
                            ___lldiv
                             ___lmul
 ---------------------------------------------------------------------------------
 (1) _lcd_init                                             1     1      0    3592
                                             10 COMRAM     1     1      0
                           _delay_ms
                      _lcd_send_byte
                    _lcd_send_nibble
 ---------------------------------------------------------------------------------
 (1) _lcd_clear_line                                       2     2      0    9502
                                             14 COMRAM     2     2      0
                         _lcd_gotoxy
                           _lcd_putc
 ---------------------------------------------------------------------------------
 (1) _is_byte_available                                    0     0      0       0
 ---------------------------------------------------------------------------------
 (1) _initTimer1                                           0     0      0       0
 ---------------------------------------------------------------------------------
 (1) _initPorts                                            0     0      0       0
 ---------------------------------------------------------------------------------
 (1) _initADC                                              0     0      0       0
 ---------------------------------------------------------------------------------
 (1) _execute_part2_radar                                 44    44      0   20267
                                             37 COMRAM    44    44      0
                        _buzzer_beep
                       _delay_ms_var
               _hcsr04_read_filtered
                         _lcd_gotoxy
                           _lcd_puts
                   _radar_next_angle
                 _send_string_no_lib
                    _servo_set_angle
                            _sprintf
 ---------------------------------------------------------------------------------
 (1) _sprintf                                             34    22     12    3443
                                             12 COMRAM    25    13     12
                            ___lwdiv
                            ___lwmod
                             ___wmul
                            _isdigit
 ---------------------------------------------------------------------------------
 (2) _isdigit                                              3     3      0      68
                                              0 COMRAM     3     3      0
 ---------------------------------------------------------------------------------
 (2) ___wmul                                               6     2      4     311
                                              0 COMRAM     6     2      4
 ---------------------------------------------------------------------------------
 (2) ___lwmod                                              5     1      4     615
                                              7 COMRAM     5     1      4
                            ___lwdiv (ARG)
 ---------------------------------------------------------------------------------
 (1) _servo_set_angle                                      4     4      0    2119
                                             32 COMRAM     4     4      0
                  _servo_angle_to_us
                     _servo_pulse_us
 ---------------------------------------------------------------------------------
 (2) _servo_pulse_us                                       4     2      2     515
                                              2 COMRAM     4     2      2
                       _delay_us_var
 ---------------------------------------------------------------------------------
 (2) _servo_angle_to_us                                    7     5      2    1513
                                             25 COMRAM     7     5      2
                            ___lldiv
                             ___lmul
 ---------------------------------------------------------------------------------
 (2) _send_string_no_lib                                   2     0      2     295
                                              1 COMRAM     2     0      2
                   _send_byte_no_lib
 ---------------------------------------------------------------------------------
 (1) _send_byte_no_lib                                     1     1      0      22
                                              0 COMRAM     1     1      0
 ---------------------------------------------------------------------------------
 (2) _radar_next_angle                                     0     0      0       0
 ---------------------------------------------------------------------------------
 (1) _lcd_puts                                             2     0      2    7010
                                             14 COMRAM     2     0      2
                           _lcd_putc
 ---------------------------------------------------------------------------------
 (2) _lcd_putc                                             1     1      0    6433
                                             13 COMRAM     1     1      0
                           _delay_ms
                         _lcd_gotoxy
                      _lcd_send_byte
 ---------------------------------------------------------------------------------
 (3) _lcd_gotoxy                                           3     2      1    2979
                                             10 COMRAM     3     2      1
                      _lcd_send_byte
 ---------------------------------------------------------------------------------
 (3) _lcd_send_byte                                        2     1      1    2072
                                              8 COMRAM     2     1      1
                       _delay_cycles
                           _delay_ms
                    _lcd_send_nibble
 ---------------------------------------------------------------------------------
 (4) _lcd_send_nibble                                      2     2      0      68
                                              6 COMRAM     2     2      0
                       _delay_cycles
 ---------------------------------------------------------------------------------
 (5) _delay_cycles                                         6     6      0      46
                                              0 COMRAM     6     6      0
 ---------------------------------------------------------------------------------
 (2) _hcsr04_read_filtered                                20    18      2    3655
                                             14 COMRAM    20    18      2
                       _delay_ms_var
                   _hcsr04_read_once
                       _sort_samples
 ---------------------------------------------------------------------------------
 (3) _sort_samples                                        11     8      3     705
                                              0 COMRAM    11     8      3
 ---------------------------------------------------------------------------------
 (3) _hcsr04_read_once                                     6     4      2    1825
                                              8 COMRAM     6     4      2
                            ___lwdiv
                       _delay_us_var
                     _timer1_read_us
                    _timer1_start_us
                        _timer1_stop
                     _timer1_timeout
 ---------------------------------------------------------------------------------
 (4) _timer1_timeout                                       2     0      2     296
                                              6 COMRAM     2     0      2
                     _timer1_read_us
 ---------------------------------------------------------------------------------
 (5) _timer1_read_us                                       6     4      2      46
                                              0 COMRAM     6     4      2
 ---------------------------------------------------------------------------------
 (4) _timer1_stop                                          0     0      0       0
 ---------------------------------------------------------------------------------
 (4) _timer1_start_us                                      0     0      0       0
 ---------------------------------------------------------------------------------
 (3) _delay_us_var                                         2     0      2     373
                                              0 COMRAM     2     0      2
 ---------------------------------------------------------------------------------
 (2) ___lwdiv                                              7     3      4     922
                                              0 COMRAM     7     3      4
 ---------------------------------------------------------------------------------
 (3) _delay_ms_var                                         2     0      2     251
                                              0 COMRAM     2     0      2
 ---------------------------------------------------------------------------------
 (2) _buzzer_beep                                          2     2      0      46
                                              0 COMRAM     2     2      0
 ---------------------------------------------------------------------------------
 (1) _adc_raw_to_mv                                        2     0      2    1542
                                             25 COMRAM     2     0      2
                            ___lldiv
                             ___lmul
 ---------------------------------------------------------------------------------
 (3) ___lmul                                              12     4      8     674
                                              0 COMRAM    12     4      8
 ---------------------------------------------------------------------------------
 (1) _adc_average_raw                                      9     7      2    2463
                                             25 COMRAM     9     7      2
                            ___lldiv
                           _delay_ms
                        _readADC_raw
 ---------------------------------------------------------------------------------
 (2) _readADC_raw                                          7     5      2      45
                                              0 COMRAM     7     5      2
 ---------------------------------------------------------------------------------
 (2) _delay_ms                                             4     2      2    1338
                                              0 COMRAM     4     2      2
 ---------------------------------------------------------------------------------
 (3) ___lldiv                                             13     5      8     770
                                             12 COMRAM    13     5      8
                             ___lmul (ARG)
 ---------------------------------------------------------------------------------
 Estimated maximum stack depth 5
 ---------------------------------------------------------------------------------

 Call Graph Graphs:

 _main (ROOT)
   ___lwdiv
   ___lwmod
     ___lwdiv (ARG)
   _adc_average_raw
     ___lldiv
       ___lmul (ARG)
     _delay_ms
     _readADC_raw
   _adc_raw_to_mv
     ___lldiv
       ___lmul (ARG)
     ___lmul
   _delay_ms
   _execute_part2_radar
     _buzzer_beep
     _delay_ms_var
     _hcsr04_read_filtered
       _delay_ms_var
       _hcsr04_read_once
         ___lwdiv
         _delay_us_var
         _timer1_read_us
         _timer1_start_us
         _timer1_stop
         _timer1_timeout
           _timer1_read_us
       _sort_samples
     _lcd_gotoxy
       _lcd_send_byte
         _delay_cycles
         _delay_ms
         _lcd_send_nibble
           _delay_cycles
     _lcd_puts
       _lcd_putc
         _delay_ms
         _lcd_gotoxy
           _lcd_send_byte
             _delay_cycles
             _delay_ms
             _lcd_send_nibble
               _delay_cycles
         _lcd_send_byte
           _delay_cycles
           _delay_ms
           _lcd_send_nibble
             _delay_cycles
     _radar_next_angle
     _send_string_no_lib
       _send_byte_no_lib
     _servo_set_angle
       _servo_angle_to_us
         ___lldiv
           ___lmul (ARG)
         ___lmul
       _servo_pulse_us
         _delay_us_var
     _sprintf
       ___lwdiv
       ___lwmod
         ___lwdiv (ARG)
       ___wmul
       _isdigit
   _initADC
   _initPorts
   _initTimer1
   _is_byte_available
   _lcd_clear_line
     _lcd_gotoxy
       _lcd_send_byte
         _delay_cycles
         _delay_ms
         _lcd_send_nibble
           _delay_cycles
     _lcd_putc
       _delay_ms
       _lcd_gotoxy
         _lcd_send_byte
           _delay_cycles
           _delay_ms
           _lcd_send_nibble
             _delay_cycles
       _lcd_send_byte
         _delay_cycles
         _delay_ms
         _lcd_send_nibble
           _delay_cycles
   _lcd_gotoxy
     _lcd_send_byte
       _delay_cycles
       _delay_ms
       _lcd_send_nibble
         _delay_cycles
   _lcd_init
     _delay_ms
     _lcd_send_byte
       _delay_cycles
       _delay_ms
       _lcd_send_nibble
         _delay_cycles
     _lcd_send_nibble
       _delay_cycles
   _lcd_putc
     _delay_ms
     _lcd_gotoxy
       _lcd_send_byte
         _delay_cycles
         _delay_ms
         _lcd_send_nibble
           _delay_cycles
     _lcd_send_byte
       _delay_cycles
       _delay_ms
       _lcd_send_nibble
         _delay_cycles
   _lcd_puts
     _lcd_putc
       _delay_ms
       _lcd_gotoxy
         _lcd_send_byte
           _delay_cycles
           _delay_ms
           _lcd_send_nibble
             _delay_cycles
       _lcd_send_byte
         _delay_cycles
         _delay_ms
         _lcd_send_nibble
           _delay_cycles
   _lm35_celsius_x10
     ___lldiv
       ___lmul (ARG)
     ___lmul
   _read_byte_no_lib
   _send_byte_no_lib
   _servo_set_angle
     _servo_angle_to_us
       ___lldiv
         ___lmul (ARG)
       ___lmul
     _servo_pulse_us
       _delay_us_var
   _setupSerial
   _soundBuzzer
     _delay_ms
   _sprintf
     ___lwdiv
     ___lwmod
       ___lwdiv (ARG)
     ___wmul
     _isdigit

 Address spaces:
Name               Size   Autos  Total    Cost      Usage
BIGRAM             F7F      0       0      37        0.0%
EEDATA             400      0       0       0        0.0%
BITBANK14          100      0       0      32        0.0%
BANK14             100      0       0      33        0.0%
BITBANK13          100      0       0      30        0.0%
BANK13             100      0       0      31        0.0%
BITBANK12          100      0       0      28        0.0%
BANK12             100      0       0      29        0.0%
BITBANK11          100      0       0      26        0.0%
BANK11             100      0       0      27        0.0%
BITBANK10          100      0       0      24        0.0%
BANK10             100      0       0      25        0.0%
BITBANK9           100      0       0      22        0.0%
BANK9              100      0       0      23        0.0%
BITBANK8           100      0       0      20        0.0%
BANK8              100      0       0      21        0.0%
BITBANK7           100      0       0      18        0.0%
BANK7              100      0       0      19        0.0%
BITBANK6           100      0       0      16        0.0%
BANK6              100      0       0      17        0.0%
BITBANK5           100      0       0      14        0.0%
BANK5              100      0       0      15        0.0%
BITBANK4           100      0       0      12        0.0%
BANK4              100      0       0      13        0.0%
BITBANK3           100      0       0      10        0.0%
BANK3              100      0       0      11        0.0%
BITBANK2           100      0       0       8        0.0%
BANK2              100      0       0       9        0.0%
BITBANK1           100      0       0       6        0.0%
BANK1              100      0       0       7        0.0%
BITBANK15           80      0       0      35        0.0%
BANK15              80      0       0      36        0.0%
BITBANK0            80      0       0       4        0.0%
BANK0               80     35      3B       5       46.1%
BITCOMRAM           7F      0       0       0        0.0%
COMRAM              7F     51      55       1       66.9%
BITSFR               0      0       0     200        0.0%
SFR                  0      0       0     200        0.0%
STACK                0      0       0       2        0.0%
NULL                 0      0       0       0        0.0%
ABS                  0      0      90      34        0.0%
DATA                 0      0      90       3        0.0%
CODE                 0      0       0       0        0.0%


Microchip Technology PIC18 Macro Assembler V1.45 build -152302408 
Symbol Table                                                                                   Mon Apr 20 23:41:36 2026

                              l9 21EC                               l10 21DE  
                             l15 213A                               l31 1C48  
                             l16 2134                               l24 1F3E  
                             l40 1FDE                               l41 1FE2  
                             l50 1D46                               l36 1FE8  
                             l37 1FD6                               l45 1D52  
                             l29 1C20                               l38 2002  
                             l46 1D16                               l54 1CE8  
                             l39 1FDA                               l55 1CBE  
                             l48 1D2E                               l81 20E0  
                             l49 1D3A                               l82 20DE  
                 ?_lcd_send_byte 0009                 adc_average_raw@i 0021  
   __end_of_hcsr04_read_filtered 1764              ___wmul@multiplicand 0003  
                    __CFG_BORV$3 000000                     __CFG_CP0$OFF 000000  
                   __CFG_CP1$OFF 000000                     __CFG_CP2$OFF 000000  
                   __CFG_CP3$OFF 000000                      __CFG_OSC$XT 000000  
                    __CFG_WDT$ON 000000                              l140 22E8  
                            l301 1D7C                              l302 1D6A  
                            l151 2334                              l143 22F0  
                            l304 1D9C                              l152 2332  
                            l313 22D2                              l305 1D8A  
                            l401 15A0                              l314 22C2  
                            l330 2280                              l410 174C  
                            l307 1DB4                              l403 15CC  
                            l308 1DAA                              l404 1654  
                            l333 1AC8                              l157 2232  
                            l413 1874                              l334 1AA4  
                            l406 1650                              l158 2220  
                            l414 1858                              _ADC 1001  
                            l328 226C                              l408 1750  
                            l440 144E                              l416 18DA  
                            l272 2112                              l280 1198  
                            l345 1A70                              l409 170E  
                            l361 1B96                              l346 19DA  
                            l450 14E4                              l290 1352  
                            l282 116C                              l355 21A2  
                            l347 1A66                              l435 13A8  
                            l267 202C                              l283 1172  
                            l356 218A                              l348 19E0  
                            l444 1448                              l436 13C2  
                            l292 138A                              l284 119C  
                            l349 1A64                              l445 1470  
                            l269 2050                              l285 11A4  
                            l470 1E24                              l390 1948  
                            l374 20B0                              l454 1562  
                            l438 13EA                              l286 136C  
                            l471 1E38                              l383 1902  
                            l375 20AA                              l455 1510  
                            l287 130C                              l279 1122  
                            l392 1970                              l384 18E6  
                            l393 1954                              l385 1900  
                            l369 2172                              l449 14DC  
                            l394 196E                              l378 20C0  
                            l396 19C0                              l388 194A  
                            l389 192E                              l814 1B36  
                            l815 1B2A                              l818 1B6A  
                            l819 1B78                              l871 1EA8  
                            l872 1EB2                              l881 1FBE  
                            l882 1FC8                              l867 1E88  
                            l868 1E80                              l788 22B8  
                            l877 1FA6                              l878 1F9E  
                   __CFG_CPB$OFF 000000                     __CFG_CPD$OFF 000000  
                            u995 1F0E                              u996 1F10  
                            _lcd 000F83                              prod 000FF3  
                            wreg 000FE8                      _soundBuzzer 2014  
                    lcd_gotoxy@x 000C                      lcd_gotoxy@y 000B  
                   ?_readADC_raw 0001                     __CFG_LVP$OFF 000000  
execute_part2_radar@SerialBuffer 0026                             l2021 1D8A  
                           l2015 1D6A                             l2219 19BC  
                           l2405 1598                             l2337 148C  
                           l2435 1650                             l2293 216A  
          __size_of_sort_samples 00A6                             l2551 201C  
                           l2465 174C                             l2457 170E  
                           l2481 1C18                             l2567 210A  
                           l2495 1C40                             STR_1 1070  
                           STR_2 1018                             STR_3 107C  
                           STR_4 105F                             STR_5 107E  
                           STR_6 102C                             STR_7 104E  
                           STR_8 103D                             STR_9 1086  
                           u1120 1E8C                             u1320 1FAA  
                           u1090 1B3A                             u1340 1CE0  
                           u1500 156A                             _LATA 000F89  
                           u1270 19B0                             u1350 1D0A  
                           u1510 1582                             _LATB 000F8A  
                           _LATC 000F8B                             u1280 19BC  
                           _LATD 000F8C                             _LATE 000F8D  
                           u1347 1CD6                             u1620 1688  
                           u1460 14B8                             u1357 1D00  
                           u1710 22E4                             u1480 14EC  
                           u1490 150A                             u1580 15DC  
                           _IPR1 000F9F                             u1670 1C36  
                           u1910 1342                             u1830 1148  
                           _IPR2 000FA2                             _PIE1 000F9D  
                           u1760 211C                             u1920 137C  
                           u1840 114A                             _PIE2 000FA0  
                           u1880 11BC                             u1937 1F36  
                           u1947 1D6C                             u1957 1D8C  
                           u1967 22C4                             u1977 218E  
                           u1987 2198                             u1997 21E0  
                           _PIR1 000F9E                             _PIR2 000FA1  
               ?_lcd_send_nibble 0001               adc_average_raw@sum 001D  
                           _main 108E                 _send_byte_no_lib 232E  
                           fsr0h 000FEA                             indf0 000FEF  
                           fsr2h 000FDA                             fsr0l 000FE9  
                           indf2 000FDF                             fsr1l 000FE1  
                           fsr2l 000FD9                      main@pot_raw 00A2  
                           prodh 000FF4                             prodl 000FF3  
                           start 0300                    __CFG_IESO$OFF 000000  
                    main@volt_mv 00A4                    __CFG_MCLRE$ON 000000  
                   ___param_bank 000000                ?_hcsr04_read_once 0009  
           __end_of_delay_cycles 2156                            ?_main 0001  
             ??_hcsr04_read_once 000B                            STR_10 104E  
                          _CMCON 000FB4                  __end_of___lldiv 1B8A  
           __end_of_delay_ms_var 22DC                            _T1CON 000FCD  
                __end_of___lwdiv 1EBC                  __end_of___lwmod 1FD2  
                          _RCREG 000FAE                            _RCSTA 000FAB  
                   _sort_samples 19D4                            _TMR1H 000FCF  
                          _TMR1L 000FCE                            _SPBRG 000FAF  
           __end_of_delay_us_var 1DBE                            _TRISA 000F92  
                          _TRISB 000F93                            _TRISC 000F94  
                          _TRISD 000F95                            _TRISE 000F96  
                          _TXREG 000FAD                            _TXSTA 000FAC  
                  __CFG_PWRT$OFF 000000                            _Flags 00B9  
                  __CFG_WRT0$OFF 000000                    __CFG_WRT1$OFF 000000  
                  __CFG_WRT2$OFF 000000              ___lmul@multiplicand 0005  
                  __CFG_WRT3$OFF 000000                   __CFG_EBTR0$OFF 000000  
                 __CFG_FCMEN$OFF 000000                   __CFG_EBTR1$OFF 000000  
                 __CFG_EBTR2$OFF 000000                   __CFG_EBTR3$OFF 000000  
                  __CFG_WRTB$OFF 000000                    __CFG_WRTC$OFF 000000  
                  __CFG_WRTD$OFF 000000                  __end_of_initADC 22A2  
                 __CFG_EBTRB$OFF 000000                 sort_samples@temp 0008  
                __end_of_dpowers 1018                  __end_of_isdigit 22C0  
                   main@temp_x10 00AE                     main@temp_raw 00A0  
               _lm35_celsius_x10 1C66                            tablat 000FF5  
                          status 000FD8                  _timer1_start_us 230A  
                __end_of_sprintf 1590           __size_of_adc_raw_to_mv 0056  
                   main@volt_x10 00B0                     ?_buzzer_beep 0001  
                 __CFG_PBADEN$ON 000000                   delay_ms_var@ms 0001  
                __initialization 1EBC                     __end_of_main 139E  
                ??_lcd_send_byte 000A              _execute_part2_radar 1764  
                         ??_main 0052                 ??_lcd_clear_line 000F  
                  __activetblptr 000002        __size_of_radar_next_angle 0036  
                 delay_us_var@us 0001                           _ADCON0 000FC2  
                         _ADCON1 000FC1                           _ADCON2 000FC0  
                         _ADRESH 000FC4                           _ADRESL 000FC3  
              _servo_angle_to_us 1B8A             ?_execute_part2_radar 0001  
                         _CVRCON 000FB5                           _INTCON 000FF2  
           readADC_raw@raw_value 0005                           _SPBRGH 000FB0  
           _hcsr04_read_filtered 1590               ?_servo_angle_to_us 001A  
                lcd_clear_line@i 0010                buzzer_beep@cycles 0001  
               __end_of_delay_ms 21FA                 ??_servo_pulse_us 0005  
                 __CFG_XINST$OFF 000000              ??_servo_angle_to_us 001C  
               __end_of_lcd_init 1C66                 __end_of_lcd_putc 1D68  
               __end_of_lcd_puts 1D12                           ___lmul 1E14  
                         ___wmul 21AE                   __CFG_STVREN$ON 000000  
              sort_samples@count 0003                        ??___lldiv 0015  
                     _ServoAngle 00B7                        ??___lwdiv 0005  
                      ??___lwmod 000C                     ?_timer1_stop 0001  
       __size_of_servo_set_angle 002C                    _adc_raw_to_mv 1DBE  
                      ??_initADC 0001                       _TogglePart 00B8  
                   __pdataCOMRAM 0052                        ??_isdigit 0001  
                   __mediumconst 0000              send_string_no_lib@p 0002  
                         tblptrh 000FF7                           tblptrl 000FF6  
                         tblptru 000FF8        __end_of_servo_angle_to_us 1C02  
        __end_of_timer1_start_us 231E               _send_string_no_lib 221E  
                   ?_setupSerial 0001               hcsr04_read_once@cm 000D  
                      ??_sprintf 0019            ??_execute_part2_radar 0026  
           __size_of_readADC_raw 0034            ?_hcsr04_read_filtered 000F  
                     __accesstop 0080          __end_of__initialization 1EFA  
            ?_send_string_no_lib 0002                ?_read_byte_no_lib 0001  
                  ___rparam_used 000001               ??_read_byte_no_lib 0001  
                   soundBuzzer@i 0005                   __pcstackCOMRAM 0001  
          __size_of_delay_cycles 002E                     __pidataBANK0 2350  
          __size_of_delay_ms_var 001C               readADC_raw@channel 0007  
          __size_of_delay_us_var 0056                   ?_adc_raw_to_mv 001A  
           ??_send_string_no_lib 0004         __end_of_send_byte_no_lib 233E  
                   ?_soundBuzzer 0001                lcd_gotoxy@address 000D  
   execute_part2_radar@angle_now 0051           adc_raw_to_mv@raw_value 001A  
                   sprintf@width 0023                       __pbssBANK0 00B5  
       __size_of_adc_average_raw 008E                     _delay_cycles 2128  
             __size_of_initPorts 0044                     _delay_ms_var 22C0  
              read_byte_no_lib@c 0001                     _delay_us_var 1D68  
           __size_of_buzzer_beep 002C                   lcd_send_byte@n 0009  
                        ?___lmul 0001                          ?___wmul 0001  
               lcd_send_nibble@n 0008                   _ServoDirection 00BA  
                 ___lmul@product 0009         __end_of_lm35_celsius_x10 1CBC  
hcsr04_read_filtered@distance_cm 000F          __size_of_timer1_read_us 0016  
        __size_of_timer1_timeout 0020                 _radar_next_angle 2090  
                        _INTCON2 000FF1                          _INTCON3 000FF0  
              ??_servo_set_angle 0021                        ?_delay_ms 0001  
                     _lcd_gotoxy 1FD2       __size_of_servo_angle_to_us 0078  
               ?_timer1_start_us 0001                        ?_lcd_init 0001  
      __size_of_hcsr04_read_once 00F4                        ?_lcd_putc 0001  
                      ?_lcd_puts 000F           ??_hcsr04_read_filtered 0011  
              _is_byte_available 22DC                          __Hparam 0000  
                        __Lparam 0000         __size_of_lcd_send_nibble 0022  
             ?_is_byte_available 0001                       _initTimer1 231E  
                __size_of___lmul 0056                          ___lldiv 1B08  
                __size_of___wmul 0026                          ___lwdiv 1E6A  
                ??_adc_raw_to_mv 001C                          ___lwmod 1F90  
                   __psmallconst 1000         hcsr04_read_once@pulse_us 000B  
                        __pcinit 1EBC                          __ramtop 1000  
            ??_is_byte_available 0001                          __ptext0 108E  
                        __ptext1 2014                          __ptext2 21FA  
                        __ptext3 233E                          __ptext4 1C66  
                        __ptext5 1C02                          __ptext6 20FA  
                        __ptext7 22DC                          __ptext8 231E  
                        __ptext9 1F4C             __size_of_timer1_stop 0006  
                        _initADC 2284                          _counter 00B5  
              __end_of_initPorts 1F90                          _dpowers 100E  
                        _isdigit 22A2                       ??_delay_ms 0003  
                        _sprintf 139E                       ??_lcd_init 000B  
                     ??_lcd_putc 000E                       ??_lcd_puts 0011  
           end_of_initialization 1EFA             __size_of_setupSerial 0024  
                  __Lmediumconst 0000        __end_of_is_byte_available 22F4  
           lcd_send_byte@cm_data 000A                  ___lldiv@divisor 0011  
                ___lldiv@counter 0019                ??_adc_average_raw 001C  
                      _RCSTAbits 000FAB                          postdec1 000FE5  
                        postdec2 000FDD                          postinc0 000FEE  
                        postinc1 000FE6                          postinc2 000FDE  
          __end_of_lcd_send_byte 1F4C             servo_set_angle@angle 0023  
               setupSerial@dummy 0001                        _PORTBbits 000F81  
                      _PORTCbits 000F82                      ?_lcd_gotoxy 000B  
                     main@Buffer 0080                  _LCD_INIT_STRING 0052  
        timer1_read_us@high_byte 0006             __size_of_soundBuzzer 003E  
                      _TXSTAbits 000FAC  hcsr04_read_filtered@lower_delta 0015  
              send_byte_no_lib@c 0001                      ?_initTimer1 0001  
                 __end_of___lmul 1E6A                   __end_of___wmul 21D4  
                    _BAUDCONbits 000FB8                   _timer1_read_us 22F4  
                  __pidataCOMRAM 234C                    delay_cycles@n 0004  
                  delay_cycles@x 0005                ??_lcd_send_nibble 0007  
      __size_of_read_byte_no_lib 0008                   _timer1_timeout 2264  
              ?_send_byte_no_lib 0001      __end_of_execute_part2_radar 18E0  
            start_initialization 1EBC                      __end_of_ADC 100E  
             ??_send_byte_no_lib 0001                     buzzer_beep@i 0002  
    hcsr04_read_once@distance_cm 0009                    ??_readADC_raw 0003  
               _hcsr04_read_once 18E0          __size_of_lcd_clear_line 002E  
     __size_of_is_byte_available 0018                 servo_set_angle@i 0024  
       __end_of_radar_next_angle 20C6        servo_angle_to_us@pulse_us 001C  
                       ??___lmul 0009              __size_of_lcd_gotoxy 0042  
                       ??___wmul 0005           __end_of_timer1_read_us 230A  
                _servo_set_angle 2156                      __pdataBANK0 00BA  
               __CFG_LPT1OSC$OFF 000000           __end_of_timer1_timeout 2284  
              ?_lm35_celsius_x10 001A          __size_of_servo_pulse_us 003E  
    __size_of_send_string_no_lib 0024           servo_angle_to_us@angle 0020  
                  ?_sort_samples 0001               ??_lm35_celsius_x10 001C  
                  __pcstackBANK0 0080                    sort_samples@i 000B  
                  sort_samples@j 000A                     _isdigit$1399 0002  
              __size_of_delay_ms 0026              __size_of_initTimer1 0010  
              __size_of_lcd_init 0064                      sprintf@flag 001D  
              __size_of_lcd_putc 0056                __size_of_lcd_puts 0056  
                    sprintf@prec 0022        execute_part2_radar@Buffer 003E  
            __end_of_readADC_raw 20FA                    ??_buzzer_beep 0001  
hcsr04_read_filtered@upper_delta 0017                        _main$1795 00A6  
                      _main$1796 00A8                        _main$1797 00AA  
                      _main$1798 00AC                 ___lwdiv@dividend 0001  
              __CFG_CCP2MX$PORTC 000000        hcsr04_read_filtered@valid 001C  
                ?_timer1_read_us 0001                         ?___lldiv 000D  
                       ?___lwdiv 0001                         ?___lwmod 0008  
                ?_timer1_timeout 0007                   ??_sort_samples 0004  
                       ?_initADC 0001                      __smallconst 1000  
                       ?_isdigit 0001                        _initPorts 1F4C  
               ___lwdiv@quotient 0005                         ?_sprintf 000D  
                _adc_average_raw 1A7A    __size_of_hcsr04_read_filtered 01D4  
                 ___wmul@product 0005                         _LATBbits 000F8A  
                       _LATCbits 000F8B                        delay_ms@n 0001  
                      delay_ms@x 0003         __size_of_timer1_start_us 0014  
        __end_of_servo_set_angle 2182                         _PIR1bits 000F9E  
                       _RCONbits 000FD0                 __CFG_WDTPS$32768 000000  
            __end_of_buzzer_beep 21AE                    ??_timer1_stop 0001  
          __end_of_adc_raw_to_mv 1E14                 _read_byte_no_lib 233E  
                     _ADCON0bits 000FC2                       _ADCON2bits 000FC0  
              lcd_clear_line@row 000F                ___wmul@multiplier 0001  
                      lcd_init@i 000B                        lcd_putc@c 000E  
                      lcd_puts@s 000F                     ??_lcd_gotoxy 000C  
      lm35_celsius_x10@raw_value 001A                       ?_initPorts 0001  
                  ??_setupSerial 0001                      _readADC_raw 20C6  
              ___lmul@multiplier 0001                      _INTCON3bits 000FF0  
                      copy_data0 1EE2           adc_average_raw@channel 0022  
         timer1_read_us@low_byte 0005                   _lcd_clear_line 20FA  
       timer1_timeout@timeout_us 0007                  main@receivedMsg 00B4  
         adc_average_raw@samples 001A                  _lcd_send_nibble 2242  
                       __Hrparam 0000                         __Lrparam 0000  
             __CFG_BOREN$SBORDIS 000000                     ??_initTimer1 0001  
             __end_of_lcd_gotoxy 2014         __end_of_hcsr04_read_once 19D4  
               __size_of___lldiv 0082                 __size_of___lwdiv 0052  
               __size_of___lwmod 0042                   _servo_pulse_us 2052  
                     sprintf@val 0020                 __size_of_initADC 001E  
            __end_of_timer1_stop 234C          __end_of_adc_average_raw 1B08  
                  ??_soundBuzzer 0005                 __size_of_isdigit 001E  
                       _delay_ms 21D4                  ___lwdiv@divisor 0003  
         __end_of_lcd_clear_line 2128                  ___lwdiv@counter 0007  
                       __ptext10 2284                         __ptext11 1764  
                       __ptext20 232E                         __ptext12 139E  
                       __ptext21 2090                         __ptext13 22A2  
                       __ptext30 18E0                         __ptext22 1CBC  
                       __ptext14 21AE                         __ptext31 2264  
                       __ptext23 1D12                         __ptext15 1F90  
                       __ptext40 1E14                         __ptext32 22F4  
                       __ptext24 1FD2                         __ptext16 2156  
                       __ptext41 1A7A                         __ptext33 2346  
                       __ptext25 1F04                         __ptext17 2052  
                       __ptext42 20C6                         __ptext34 230A  
                       __ptext26 2242                         __ptext18 1B8A  
                       __ptext43 21D4                         __ptext35 1D68  
                       __ptext27 2128                         __ptext19 221E  
                       __ptext44 1B08                         __ptext36 1E6A  
                       __ptext28 1590                         __ptext37 22C0  
                       __ptext29 19D4                         __ptext38 2182  
                       __ptext39 1DBE              sort_samples@samples 0001  
                       _lcd_init 1C02                         _lcd_putc 1D12  
                       _lcd_puts 1CBC                 __size_of_sprintf 01F2  
             __end_of_initTimer1 232E           __size_of_lcd_send_byte 0048  
                  ?_delay_cycles 0001                    __size_of_main 0310  
      __size_of_send_byte_no_lib 0010                    ?_delay_ms_var 0001  
            __end_of_setupSerial 221E             __end_of_sort_samples 1A7A  
                    _buzzer_beep 2182                    ?_delay_us_var 0001  
               ?_servo_set_angle 0001                ?_radar_next_angle 0001  
    hcsr04_read_filtered@reading 0019               ??_radar_next_angle 0001  
               main@update_timer 00B2      hcsr04_read_filtered@samples 001D  
         __end_of_servo_pulse_us 2090                ??_timer1_start_us 0001  
 execute_part2_radar@distance_cm 004F          servo_set_angle@pulse_us 0021  
          hcsr04_read_filtered@i 001B                       _INTCONbits 000FF2  
         servo_pulse_us@pulse_us 0003                  ?_lcd_clear_line 0001  
                       isdigit@c 0003                      ??_initPorts 0001  
                      sprintf@ap 001E          __end_of_lcd_send_nibble 2264  
                      sprintf@sp 000D     __size_of_execute_part2_radar 017C  
      __size_of_lm35_celsius_x10 0056                   ??_delay_cycles 0001  
            __end_of_soundBuzzer 2052                   ??_delay_ms_var 0003  
               ___lwmod@dividend 0008                 ___lldiv@dividend 000D  
                 ??_delay_us_var 0003                 ??_timer1_read_us 0003  
               ??_timer1_timeout 0009                  ?_servo_pulse_us 0003  
     __end_of_send_string_no_lib 2242                      _timer1_stop 2346  
                  _lcd_send_byte 1F04                         sprintf@c 0025  
                       sprintf@f 000F                 ___lldiv@quotient 0015  
                ___lwmod@divisor 000A                  ___lwmod@counter 000C  
               ?_adc_average_raw 001A                      _setupSerial 21FA  
       __end_of_read_byte_no_lib 2346  
